
 Start         Length     Name                   Class
 0001:00401000 00001AAC8H _TEXT                  CODE
 0002:0041C000 000005C98H _DATA                  DATA
 0003:00421C98 000002AF8H _BSS                   BSS
 0004:00000000 00000009CH _TLS                   TLS

  Address         Publics by Name

 0001:00000140      Sysinit::__linkproc__ __fastcall GetTls()
 0002:00004D0C      _CLOCALE
 0002:00004BFC      _CMonetary
 0002:00004C30      _CNumeric
 0002:00004C48      _CTimeDate
 0001:000195FC      _CatchCleanup()
 0001:000103F8      _InitTermAndUnexPtrs()
 0001:00019455      _ReThrowException(unsigned int, unsigned char *)
 0001:00019420      _ThrowExceptionLDTC(void *, void *, void *, void *, unsigned int, unsigned int, unsigned int, unsigned char *, void *)
 0003:00002AA8      __C0argc
 0003:00002AAC      __C0argv
 0003:00002AB0      __C0environ
 0001:0001A91E      __CurrExcContext
 0003:000026A4      __DestructorCountPtr
 0001:000185E6      __DoLongJump__
 0001:00017D94      __ErrorExit
 0001:00017C68      __ErrorMessage
 0001:00017BA8      __ErrorMessageHelper
 0003:00002AC8      __ExcRegPtr
 0001:00010570      __ExceptInit
 0002:00003AB8      __ExceptVarsSize
 0001:0000FC7B      __ExceptionHandler
 0001:0000FC6D      __ExitExceptBlock
 0001:00000059      __GetExceptDLLinfo
 0001:000105BC      __GetExceptDLLinfoInternal
 0001:000194C0      __Global_unwind
 0003:000026AC      __HandlerPtr
 0001:00010758      __InitDefaultHander
 0001:0000FC34      __InitExceptBlockLDTC
 0001:00019B2C      __Local_unwind
 0002:00000134      __PackageInfoTable
 0001:00019B3F      __Return_unwind
 0001:0001076C      __SetExceptionHandler
 0001:0001070C      __SetUserHandler
 0002:00000123      __TLS_index
 0002:00000127      __TLS_index4
 0001:00010781      __UnsetExceptionHandler
 0001:000107AD      __UnwindException
 0003:000026B0      __UserHandlerPtr
 0002:00000130      ___CPPdebugHook
 0002:00000130      ___CPPdebugHook_segment
 0002:00003A1C      ___CPPexceptionList
 0001:0000EAC0      ___CRTL_MEM_CheckBorMem
 0001:0000EA44      ___CRTL_MEM_GetBorMemPtrs
 0001:0000EAFC      ___CRTL_MEM_Revector
 0001:0000EBB4      ___CRTL_MEM_UseBorMM
 0001:00018D80      ___CRTL_TLS_Alloc
 0001:00018DC4      ___CRTL_TLS_ExitThread
 0001:00018D88      ___CRTL_TLS_Free
 0001:00018DCC      ___CRTL_TLS_GetInfo
 0001:00018D98      ___CRTL_TLS_GetValue
 0001:00018DBC      ___CRTL_TLS_InitThread
 0001:00018DA8      ___CRTL_TLS_SetValue
 0001:0000F81C      ___CRTL_VCLLIB_Linkage
 0001:0000F818      ___CRTL_VCL_Init
 0001:00011A30      ___DOSerror
 0001:000105E4      ___DefHandler
 0001:00017D84      ___ErrorMessage
 0002:00003A38      ___ExceptStaticXbuff
 0001:000119EC      ___IOerror
 0001:00018DFB      ___JumpToCatch__
 0001:00011A50      ___NTerror
 0001:00000140      ___System__GetTls
 0001:00019BA0      ____ExceptionHandler
 0001:000107D8      ___access
 0001:00003B58      ___add__
 0002:000036B8      ___allocated
 0001:000104C4      ___call_terminate
 0001:00010538      ___call_unexpected
 0001:00010814      ___close
 0002:0000540C      ___debuggerDisableTerminateCallback
 0001:000107BA      ___doGlobalUnwind
 0001:00010874      ___eof
 0002:00003A20      ___exceptFlags
 0002:00003A34      ___exceptMemAllocVars
 0002:00003A30      ___exceptStaticBuffP
 0001:000114F0      ___fputn
 0001:00011474      ___getfp
 0002:0000509C      ___ieee_64_n_inf
 0002:000050AC      ___ieee_64_n_nanq
 0002:000050BC      ___ieee_64_n_nans
 0002:000050CC      ___ieee_64_n_zero
 0002:00005094      ___ieee_64_p_inf
 0002:000050A4      ___ieee_64_p_nanq
 0002:000050B4      ___ieee_64_p_nans
 0002:000050C4      ___ieee_64_p_zero
 0001:00015F14      ___int64toa
 0001:00003BCF      ___ip4__
 0001:00003960      ___ip__
 0002:00000115      ___isDLL
 0002:000000DC      ___isGUI
 0002:00000114      ___isVCLPackage
 0001:000108FC      ___isatty
 0001:0001092C      ___isatty_osfhandle
 0001:000139E4      ___isctype
 0001:00013A28      ___iswctype
 0001:00003DB7      ___lc4__
 0001:00015FC8      ___ldtrunc
 0002:00004D38      ___locale
 0002:00004AE8      ___localeLock
 0001:000160E0      ___longtoa
 0001:00010944      ___lseek
 0001:00003F66      ___ma4__
 0002:00004AE4      ___mb_cur_max
 0001:00011D1C      ___mkname
 0001:00003A60      ___mltadd__
 0001:00015E42      ___nextreal
 0001:000109BC      ___open
 0001:000113C8      ___openfp
 0001:0000F584      ___org__expand
 0001:00011B0C      ___org__fgetc
 0001:00010EBC      ___org__fputc
 0001:000161E8      ___org__matherr
 0001:00016214      ___org__matherrl
 0001:0000F7FC      ___org__msize
 0001:00010F24      ___org__read
 0001:00010EDC      ___org__rtl_read
 0001:00010F40      ___org__rtl_write
 0001:00010F88      ___org__write
 0001:00010FA4      ___org_access
 0001:00015DE8      ___org_atoi
 0001:00015D80      ___org_atol
 0001:0000E8C4      ___org_calloc
 0001:0000E8F0      ___org_delete
 0001:0000E900      ___org_deletea
 0001:0001102C      ___org_fclose
 0001:000110BC      ___org_fflush
 0001:00011B24      ___org_fgetc
 0001:0001113C      ___org_fgets
 0001:000114A0      ___org_fopen
 0001:000114CC      ___org_fprintf
 0001:00011C0C      ___org_fputc
 0001:0000EAD4      ___org_free
 0001:000115CC      ___org_fscanf
 0001:0001164C      ___org_fseek
 0001:000116B0      ___org_ftell
 0001:00011A64      ___org_isatty
 0001:00016170      ___org_itoa
 0001:00015BF0      ___org_ltoa
 0001:0000EAC4      ___org_malloc
 0001:00015520      ___org_mblen
 0001:000156E4      ___org_mbstowcs
 0001:0001559C      ___org_mbtowc
 0001:0000F820      ___org_memchr
 0001:0000FAB0      ___org_memcmp
 0001:0000F840      ___org_memcpy
 0001:0000F864      ___org_memmove
 0001:0000F8B0      ___org_memset
 0001:00011DB0      ___org_printf
 0001:00018A14      ___org_raise
 0001:0000EAE4      ___org_realloc
 0001:00012838      ___org_setvbuf
 0001:000128B4      ___org_sscanf
 0001:0000F954      ___org_strcat
 0001:0000F990      ___org_strchr
 0001:0000FB1C      ___org_strdup
 0001:0000F9E4      ___org_strlen
 0001:0000FA40      ___org_strncat
 0001:0000FB50      ___org_strstr
 0001:000161A0      ___org_ultoa
 0001:00012A14      ___org_ungetc
 0001:000128D8      ___org_vsscanf
 0001:0001584C      ___org_wcstombs
 0001:00015670      ___org_wctomb
 0003:00002AEC      ___pCPPdebugHook
 0002:00005264      ___pCallAtExitProcs
 0001:00019065      ___raiseDebuggerException
 0001:00010C24      ___read
 0001:00015E3C      ___realcvt
 0001:0001260C      ___scantoint64
 0001:00003B30      ___smlt__
 0001:00003B87      ___sub__
 0002:000039E0      ___terminatePTR
 0002:00003A2C      ___throwExceptionName
 0002:00003A24      ___throwFileName
 0002:00003A28      ___throwLineNumber
 0001:00011D6C      ___tmpnam
 0002:000039E4      ___unexpectdPTR
 0002:00000122      ___useDynamicTLS
 0001:00016154      ___utoa
 0001:00012B30      ___vprinter
 0001:00010D54      ___write
 0001:00017338      ___xcvt
 0001:0001760C      ___xcvtw
 0004:00000000      ___xxInfo
 0002:000036BC      ___xxPersonality
 0001:0000AA1D      ___zadd__
 0001:0000A74C      ___zconj__
 0001:00003BB6      ___zero__
 0001:0000A778      ___zip__
 0001:0000A99C      ___zmlt__
 0001:0000A884      ___zmltadd__
 0001:0000AA71      ___zsub__
 0001:0000AAC5      ___zzero__
 0001:00017E38      __abort
 0001:00000000      __acrtused
 0001:00014A60      __addCategoryName
 0001:0001037C      __adjustClassAdr(void *, tpid *, tpid *)
 0001:00014C00      __allocAndGetValue
 0001:00010FAC      __allocbuf
 0003:00002ABC      __argc
 0003:00002A84      __argv
 0002:0000532C      __argv0
 0001:00017F20      __argv_default_expand
 0002:00005324      __argv_expand_ptr
 0001:00017AF8      __assert
 0003:0000227C      __bormm_pfn_FreeMem
 0003:00002280      __bormm_pfn_GetMem
 0003:00002288      __bormm_pfn_HeapAddRef
 0003:0000228C      __bormm_pfn_HeapRelease
 0003:00002284      __bormm_pfn_ReallocMem
 0001:00017EF4      __c_exit
 0001:00017EE4      __cexit
 0002:00003B14      __cfinfo_get
 0002:00004754      __chartype
 0002:00003ACC      __chtbl__ __call_terminate()
 0002:000039E8      __chtbl__ std::terminate()
 0001:00014494      __cleanCategories
 0001:00014014      __cleanLocale
 0001:00018B70      __cleanup
 0001:00015DF8      __clear87
 0002:000052D8      __cmdline_escapes
 0001:00015E0C      __control87
 0001:00018A94      __create_shmem
 0001:00016628      __cvt_init
 0001:0001695C      __cvt_initw
 0002:00005054      __default87
 0003:00002AC0      __dll_table
 0002:000040A4      __dosErrorToSV
 0003:00002844      __doserrno
 0001:00011770      __dup_handle
 0002:00003AEC      __ectbl__ __call_terminate()
 0002:00003A08      __ectbl__ std::terminate()
 0003:00002AA4      __env_lock
 0003:00002A98      __environ
 0003:00002AA0      __envsize
 0003:00002ADC      __exe_table
 0001:00017ECC      __exit
 0001:00010744      __exit_except
 0001:000129B8      __exit_streams
 0001:00017FF8      __exitargv
 0002:00005278      __exitargv_ptr
 0002:00005268      __exitbuf
 0002:0000526C      __exitfopen
 0002:00005270      __exitopen
 0001:0000F584      __expand
 0001:00018620      __expandblock
 0001:00011B0C      __fgetc
 0002:00003B1C      __fileinfo
 0002:00003698      __firstHeap
 0002:000050D8      __floatconvert
 0001:00010E84      __flushall
 0001:0001126C      __flushout
 0002:0000409C      __fmode
 0002:000040A0      __fmodeptr
 0001:00015E94      __fpreset
 0001:00010EBC      __fputc
 0002:000036A4      __freeStart
 0001:000117D8      __free_handle
 0001:0000EBA4      __free_heaps
 0001:00015EAC      __fuildq
 0001:00015EDC      __fuistq
 0001:00015F00      __fxam
 0001:00000066      __getHInstance
 0001:00014080      __getLocale
 0001:00013788      __getLocaleNumericInfo
 0001:00014C5C      __getShortValue
 0001:00011730      __get_handle
 0001:00017A24      __getmbcp
 0002:0000012B      __hInstance
 0001:00018234      __handle_exitargv
 0001:000180DC      __handle_setargv
 0001:00018458      __handle_wexitargv
 0001:000182C4      __handle_wsetargv
 0003:0000277C      __handles
 0002:00003660      __heap_redirector
 0002:0000505C      __huge_dble
 0002:00005058      __huge_flt
 0002:00005064      __huge_ldble
 0002:00005084      __indefinite
 0001:00014010      __initLocale
 0001:00017A2C      __initMBCSTable
 0001:0001072C      __init_except
 0001:00018A9C      __init_exit_proc
 0001:00011890      __init_handles
 0001:00017F48      __init_setargv_handlers
 0001:000128FC      __init_streams
 0001:00017F04      __init_wild_handlers
 0001:000112D8      __initfileinfo
 0001:000112C8      __initfmode
 0001:00016244      __initmatherr
 0001:0000F19C      __internal_free
 0001:0000F524      __internal_free_heaps
 0001:0000F30C      __internal_malloc
 0001:0000F764      __internal_realloc
 0001:0001026C      __isCompatTypeID(tpid *, tpid *, int, tpid * *)
 0001:0000005E      __isDLL
 0001:00010190      __isSameTypeID(tpid *, tpid *)
 0002:00005404      __isWindows
 0001:00017A3C      __ismbcspace
 0002:00005178      __kalpha
 0002:0000517A      __kpunct
 0002:0000369C      __lastHeap
 0002:000036A0      __linktable
 0001:00015A13      __lldiv
 0001:00015AD4      __llmod
 0001:000159F0      __llmul
 0001:00015410      __llocaleconv
 0001:00015B9C      __llshl
 0001:00015BB8      __llshr
 0001:00015A8B      __lludiv
 0001:00015B4E      __llumod
 0001:00015BD4      __llushr
 0002:00004958      __localeconvention
 0001:00013FF8      __lockLocale
 0002:000049E4      __lower
 0001:000162F8      __lrand
 0001:000154A8      __lstrlwr
 0001:000161C0      __ltoa
 0001:000154CC      __ltolower
 0001:00000574      __m_copy
 0001:000161E8      __matherr
 0001:00016214      __matherrl
 0002:00005072      __max_dble
 0002:0000506E      __max_flt
 0002:0000507A      __max_ldble
 0003:00002960      __mbcsCodePage
 0003:0000285C      __mbctype
 0001:00017A58      __mbsrchr
 0002:00005210      __messagefile
 0002:0000520C      __messagefunc
 0001:0000F7FC      __msize
 0002:00004F88      __nextrealptr
 0002:00004FF0      __nextrealwptr
 0002:00003FD0      __nfile
 0002:00003B18      __notUmask
 0002:00003688      __nv_heap_size
 0002:00003FD4      __openfd
 0003:00002AB4      __oscmd
 0003:00002AB8      __osenv
 0003:00002A80      __ostype
 0001:0000F50C      __phys_avail
 0003:000026B4      __pidtab
 0002:000050DC      __pmatherr
 0002:000050E0      __pmatherrl
 0001:00015BF8      __pow10
 0001:0001625C      __qdiv10
 0001:00016284      __qmul10
 0001:00010F24      __read
 0002:00004F84      __realcvtptr
 0002:00004FEC      __realcvtwptr
 0002:000036B0      __rover
 0001:00010EDC      __rtl_read
 0001:00010F40      __rtl_write
 0001:00016E40      __scan_init
 0001:00017320      __scan_initw
 0001:00011DD4      __scanner
 0001:00015E4E      __scanrslt
 0002:00004F90      __scanrsltptr
 0001:00015E48      __scantod
 0002:00004F8C      __scantodptr
 0002:00004FF8      __scanwrsltptr
 0002:00004FF4      __scanwtodptr
 0001:00014CB8      __setCType
 0001:00015404      __setCollate
 0001:00013B30      __setLocale32A
 0001:00013A80      __setLocale32W
 0001:00014840      __setLocaleFromString
 0001:00014DA0      __setMonetary
 0001:000142D8      __setNewCategories
 0001:0001537C      __setNumeric
 0001:00014F20      __setTime
 0001:00017F70      __setargv
 0002:00005284      __setargv__
 0002:00005274      __setargv_ptr
 0002:00005350      __setenvp__
 0001:000106E0      __setexc
 0001:00017900      __setmbcp
 0002:0000368C      __smalloc_threshold
 0001:00018BDC      __startup
 0003:00002AE4      __stkbase
 0002:00003B00      __stkchk
 0001:0000FBA4      __stpcpy
 0002:00003B20      __streams
 0002:000041DC      __sys_errlist
 0002:000042A0      __sys_nerr
 0001:00018A84      __terminate
 0002:00005088      __tiny_ldble
 0003:0000284C      __tmpnum
 0002:000050D4      __turboFloat
 0001:00010158      __typeIDname(tpid *)
 0001:00012A64      __unlink
 0001:00014004      __unlockLocale
 0001:000106FC      __unsetexc
 0001:00010720      __unsetuserhandler
 0001:0000061E      __v_copy
 0002:00003690      __virt_chunk_free
 0002:00003694      __virt_chunk_free2
 0002:00003680      __virt_chunk_size
 0002:00003684      __virt_chunk_size2
 0002:0000367C      __virt_heap_size
 0003:00002AD4      __wC0argv
 0003:00002AD8      __wC0environ
 0001:00017F34      __wargv_default_expand
 0002:00005328      __wargv_expand_ptr
 0002:00005280      __wexitargv_ptr
 0001:000134C4      __win32DateTimeToPOSIX
 0001:0000F93C      __wmemset
 0003:00002AD0      __woscmd
 0003:00002ACC      __wosenv
 0001:00010F88      __write
 0002:0000527C      __wsetargv_ptr
 0001:0001346C      __xfclose
 0001:0001349C      __xfflush
 0001:0000C5B4      __zin_prod
 0001:0000AAE0      __zm_copy
 0001:0000AB8A      __zv_copy
 0001:0000CAE0      __zv_map
 0001:00017E4C      _abort
 0001:00010FA4      _access
 0001:00015DE8      _atoi
 0001:00015D80      _atol
 0001:00005A10      _band2mat
 0001:00006588      _bdLDLfactor
 0001:00006760      _bdLDLsolve
 0001:00006131      _bdLUfactor
 0001:00006396      _bdLUsolve
 0001:000058AF      _bd_copy
 0001:000055DC      _bd_free
 0001:0000550C      _bd_get
 0001:00006913      _bd_mv_mlt
 0001:0000563C      _bd_resize
 0001:00005C5D      _bd_transp
 0001:00001A3F      _bfin_vec
 0001:000046F3      _biv_finput
 0001:0000141C      _bm_finput
 0001:0000173A      _bpx_finput
 0001:0000B3B1      _bzm_finput
 0001:0000B70D      _bzv_finput
 0001:0000E8C4      _calloc
 0001:0000111D      _catch_FPE
 0001:00000C9C      _count_errs
 0001:00000C58      _err_is_list_attached
 0001:00000B1C      _err_list_attach
 0001:00000C09      _err_list_free
 0002:00005208      _errno
 0001:00000CAF      _ev_err
 0001:00017EB4      _exit
 0001:00015E84      _fabs
 0001:0001102C      _fclose
 0001:000110BC      _fflush
 0001:00011B24      _fgetc
 0001:0001113C      _fgets
 0001:000114A0      _fopen
 0001:000114CC      _fprintf
 0001:00011C0C      _fputc
 0001:0000EAD4      _free
 0001:000115CC      _fscanf
 0001:0001164C      _fseek
 0001:000116B0      _ftell
 0001:000018AE      _ifin_vec
 0001:00004569      _iiv_finput
 0001:000011C5      _im_finput
 0001:000015A0      _ipx_finput
 0001:000137DC      _isalnum
 0001:00013808      _isalpha
 0001:000137F4      _isascii
 0001:00011A64      _isatty
 0001:00013820      _iscntrl
 0001:00013834      _isdigit
 0001:00013848      _isgraph
 0001:00013860      _islower
 0001:00013874      _isprint
 0001:0001388C      _ispunct
 0001:000138A0      _isspace
 0001:000138B4      _isupper
 0001:000138E0      _iswalnum
 0001:0001390C      _iswalpha
 0001:000138F8      _iswascii
 0001:00013924      _iswcntrl
 0001:00013938      _iswdigit
 0001:0001394C      _iswgraph
 0001:00013964      _iswlower
 0001:00013978      _iswprint
 0001:00013990      _iswpunct
 0001:000139A4      _iswspace
 0001:000139B8      _iswupper
 0001:000139CC      _iswxdigit
 0001:000138C8      _isxdigit
 0001:0000A2F7      _iter_copy
 0001:0000A224      _iter_copy2
 0001:0000A126      _iter_dump
 0001:00009FF2      _iter_free
 0001:0000A513      _iter_gen_nonsym
 0001:0000A63B      _iter_gen_nonsym_posdef
 0001:0000A3D3      _iter_gen_sym
 0001:00009F06      _iter_get
 0001:0000A063      _iter_resize
 0001:00009E84      _iter_std_info
 0001:00009ECC      _iter_std_stop_crit
 0001:00016170      _itoa
 0001:00004345      _iv_add
 0001:00004241      _iv_copy
 0001:000047D9      _iv_dump
 0001:00004535      _iv_finput
 0001:0000448B      _iv_foutput
 0001:000040D1      _iv_free
 0001:00002BEE      _iv_free_vars
 0001:00004008      _iv_get
 0001:00002A70      _iv_get_vars
 0001:00004295      _iv_move
 0001:00004166      _iv_resize
 0001:00002B21      _iv_resize_vars
 0001:0000489B      _iv_sort
 0001:000043E8      _iv_sub
 0001:0000353D      _iv_zero
 0001:0000B132      _izm_finput
 0001:0000B555      _izv_finput
 0001:0001856A      _longjmp
 0001:00015BF0      _ltoa
 0001:00001DBB      _m_dump
 0001:00001191      _m_finput
 0001:00001B3B      _m_foutput
 0001:00002396      _m_free
 0001:00002C6E      _m_free_vars
 0001:0000207C      _m_get
 0001:00002A9A      _m_get_vars
 0001:000035D3      _m_ident
 0001:000006F7      _m_move
 0001:000038C3      _m_ones
 0001:00003834      _m_rand
 0001:0000256B      _m_resize
 0001:00002B4F      _m_resize_vars
 0001:00003578      _m_zero
 0001:00000150      _main
 0001:0000EAC4      _malloc
 0001:00005B17      _mat2band
 0001:00015520      _mblen
 0001:000156E4      _mbstowcs
 0001:0001559C      _mbtowc
 0001:00004A88      _mem_attach_list
 0001:00004E48      _mem_bytes_list
 0002:00001680      _mem_connect
 0001:00004BB1      _mem_dump_list
 0001:00004B1E      _mem_free_vars
 0001:00004C93      _mem_info_bytes
 0001:00004D40      _mem_info_file
 0001:00004C89      _mem_info_is_on
 0001:00004CE9      _mem_info_numvar
 0001:00004C76      _mem_info_on
 0001:00004B68      _mem_is_list_attached
 0001:00004F3E      _mem_numvar_list
 0001:000053DE      _mem_stat_dump
 0001:00005277      _mem_stat_free_list
 0001:00005244      _mem_stat_mark
 0001:00005177      _mem_stat_reg_list
 0001:000054DA      _mem_stat_reg_vars
 0001:000054D0      _mem_stat_show_mark
 0001:0000F820      _memchr
 0001:0000FAB0      _memcmp
 0001:0000F840      _memcpy
 0001:0000F864      _memmove
 0001:0000F8B0      _memset
 0001:0000366D      _mrand
 0001:000036FC      _mrandlist
 0001:000008F4      _mv_move
 0001:0000E0BC      _mz_mltadd
 0001:00011DB0      _printf
 0001:0000329A      _px_cols
 0001:00000695      _px_copy
 0001:00001F0B      _px_dump
 0001:0000156C      _px_finput
 0001:00001C51      _px_foutput
 0001:00002447      _px_free
 0001:00002C2E      _px_free_vars
 0001:000021E4      _px_get
 0001:00002AC9      _px_get_vars
 0001:00003632      _px_ident
 0001:00002CB0      _px_inv
 0001:00002D41      _px_mlt
 0001:00002859      _px_resize
 0001:00002B80      _px_resize_vars
 0001:000033D1      _px_rows
 0001:00003231      _px_sign
 0001:00003144      _px_transp
 0001:00002E33      _px_vec
 0001:0000D0F8      _px_zvec
 0001:00003022      _pxinv_vec
 0001:0000D313      _pxinv_zvec
 0001:00018A14      _raise
 0001:000162DC      _rand
 0001:0000EAE4      _realloc
 0003:00000000      _restart
 0001:00000C89      _set_err_flag
 0001:00001B1C      _setformat
 0001:00018534      _setjmp
 0001:00012838      _setvbuf
 0001:0000B803      _setzformat
 0001:000189B4      _signal
 0001:00001134      _skipjunk
 0001:0000379F      _smrand
 0001:000076E2      _sp_add
 0001:000074EB      _sp_col_access
 0001:00008278      _sp_compact
 0001:00007282      _sp_copy
 0001:00007D97      _sp_copy2
 0001:000075CB      _sp_diag_access
 0001:00009725      _sp_dump
 0001:0000999C      _sp_finput
 0001:000095B8      _sp_foutput
 0001:0000712C      _sp_free
 0001:000083CB      _sp_free_vars
 0001:00006F23      _sp_get
 0001:00006A94      _sp_get_val
 0001:00008368      _sp_get_vars
 0001:00007629      _sp_m2dense
 0001:00007A98      _sp_mltadd
 0001:00006CF4      _sp_mv_mlt
 0001:00007FCF      _sp_resize
 0001:0000839A      _sp_resize_vars
 0001:00006B24      _sp_set_val
 0001:00007C7F      _sp_smlt
 0001:000078BD      _sp_sub
 0001:00006E03      _sp_vm_mlt
 0001:00007D28      _sp_zero
 0001:00008E85      _sprow_add
 0001:00008AF5      _sprow_copy
 0001:0000840C      _sprow_dump
 0001:000093C2      _sprow_foutput
 0001:00008922      _sprow_free
 0001:0000853B      _sprow_get
 0001:000084C5      _sprow_idx
 0001:00008997      _sprow_merge
 0001:00008C66      _sprow_mltadd
 0001:000087E2      _sprow_resize
 0001:00009428      _sprow_set_val
 0001:000092BF      _sprow_smlt
 0001:000090A4      _sprow_sub
 0001:00008618      _sprow_xpd
 0001:000162B4      _srand
 0001:000128B4      _sscanf
 0001:0000F954      _strcat
 0001:0000F990      _strchr
 0001:0000FB1C      _strdup
 0001:0000F9E4      _strlen
 0001:0000FA40      _strncat
 0001:0000FB50      _strstr
 0001:000161A0      _ultoa
 0001:00012A14      _ungetc
 0001:0000391A      _v_count
 0001:00001F97      _v_dump
 0001:0000187A      _v_finput
 0001:00001CEB      _v_foutput
 0001:000024D9      _v_free
 0001:00002BAE      _v_free_vars
 0001:000022C0      _v_get
 0001:00002A46      _v_get_vars
 0001:00000844      _v_move
 0001:0000387D      _v_ones
 0001:000037FC      _v_rand
 0001:0000294B      _v_resize
 0001:00002AF3      _v_resize_vars
 0001:00003508      _v_zero
 0001:0000E97C      _virt_alloc
 0001:0000E9A4      _virt_commit
 0001:0000E9F0      _virt_decommit
 0001:0000EA08      _virt_release
 0001:0000E910      _virt_reserve
 0001:000009F2      _vm_move
 0001:000128D8      _vsscanf
 0001:0000FBF4      _wcscpy
 0001:0000FBDC      _wcslen
 0001:0001584C      _wcstombs
 0001:00015670      _wctomb
 0001:0000B020      _z_finput
 0001:0000B822      _z_foutput
 0001:0000E604      _zget_col
 0001:0000E6AD      _zget_row
 0001:0000D484      _zm_add
 0001:0000DCBD      _zm_adjoint
 0001:0000BA55      _zm_dump
 0001:0000B0FE      _zm_finput
 0001:0000B861      _zm_foutput
 0001:0000BF58      _zm_free
 0001:0000C571      _zm_free_vars
 0001:0000BD1F      _zm_get
 0001:0000C4A3      _zm_get_vars
 0001:0000D61E      _zm_mlt
 0001:0000AC01      _zm_move
 0001:0000E877      _zm_rand
 0001:0000C09B      _zm_resize
 0001:0000C500      _zm_resize_vars
 0001:0000D551      _zm_sub
 0001:0000BCD9      _zm_zero
 0001:0000D896      _zmam_mlt
 0001:0000D77A      _zmma_mlt
 0001:0000DA06      _zmv_mlt
 0001:0000E264      _zmv_mltadd
 0001:0000ADF8      _zmv_move
 0001:0000E747      _zset_col
 0001:0000E7F4      _zset_row
 0001:0000DAF1      _zsm_mlt
 0001:0000DFB4      _zswap_cols
 0001:0000DEB0      _zswap_rows
 0001:0000C718      _zv_add
 0001:0000BBB7      _zv_dump
 0001:0000B521      _zv_finput
 0001:0000B97D      _zv_foutput
 0001:0000C009      _zv_free
 0001:0000C531      _zv_free_vars
 0001:0000BE85      _zv_get
 0001:0000C479      _zv_get_vars
 0001:0000CB83      _zv_lincomb
 0001:0000CC9D      _zv_linlist
 0001:0000CA40      _zv_map
 0001:0000C65C      _zv_mlt
 0001:0000C79B      _zv_mltadd
 0001:0000AD4E      _zv_move
 0001:0000D447      _zv_rand
 0001:0000C37E      _zv_resize
 0001:0000C4D2      _zv_resize_vars
 0001:0000CEF4      _zv_slash
 0001:0000CDE1      _zv_star
 0001:0000C9BB      _zv_sub
 0001:0000D070      _zv_sum
 0001:0000BCA4      _zv_zero
 0001:0000DB8D      _zvm_mlt
 0001:0000E428      _zvm_mltadd
 0001:0000AEF6      _zvm_move
 0003:00000020      b11_2
 0003:0000285C      b1538_2
 0003:00002964      b1674_2
 0003:00002A64      b1690_2
 0003:00002A80      b1702_2
 0003:00002A84      b1783_2
 0003:00002A90      b1785_2
 0003:00002A94      b1787_2
 0003:00002A98      b1859_2
 0003:00002AA8      b1881_1
 0003:00002AE8      b1977_2
 0003:00000074      b23_2
 0003:0000227C      b319_2
 0003:00000154      b31_2
 0003:000001A8      b35_2
 0003:000001F8      b37_2
 0003:00002294      b632_2
 0003:000026A4      b636_2
 0003:000026AC      b642_2
 0003:000021C8      b71_2
 0003:000021D4      b75_2
 0003:000026B4      b832_1
 0003:00002844      b908_2
 0003:00002848      b914_1
 0003:0000284C      b932_2
 0003:00002228      b95_2
 0003:00000000      b9_2
 0001:00012888      c1000_0
 0001:000128FC      c1008_0
 0001:000129B8      c1008_1
 0001:0000D484      c101_0
 0001:00012A14      c1020_0
 0001:00012A64      c1024_0
 0001:00012A80      c1036_0
 0001:0001346C      c1112_0
 0001:0001349C      c1114_0
 0001:000134C4      c1120_0
 0001:00013788      c1128_0
 0001:000137DC      c1136_0
 0001:000138E0      c1138_0
 0001:000139E4      c1140_0
 0001:00013A28      c1142_0
 0001:00013A80      c1144_0
 0001:00014010      c1144_2
 0001:00014014      c1144_3
 0001:00014C00      c1148_0
 0001:00015410      c1150_0
 0001:000154A8      c1168_0
 0001:000154CC      c1180_0
 0001:00015520      c1188_0
 0001:00001134      c11_0
 0001:000159F0      c1238_0
 0001:00015BF0      c1268_0
 0001:00015BF8      c1278_0
 0001:00015D80      c1302_0
 0001:00015DF8      c1314_0
 0001:00015E0C      c1328_0
 0001:00015E3C      c1330_0
 0001:00015E54      c1334_0
 0001:00015E6C      c1336_0
 0001:00015E84      c1358_0
 0001:00015E94      c1376_0
 0001:00015EAC      c1384_0
 0001:00015EDC      c1386_0
 0001:00015F00      c1388_0
 0001:0000207C      c13_0
 0001:00015F14      c1404_0
 0001:00015FC8      c1414_0
 0001:000160E0      c1424_0
 0001:00016170      c1432_0
 0001:000161E8      c1436_0
 0001:00016214      c1438_0
 0001:00016244      c1440_0
 0001:0001625C      c1462_0
 0001:00016284      c1464_0
 0001:000162B4      c1466_0
 0001:000162D0      c1466_2
 0001:00016344      c1468_0
 0001:00016640      c1470_0
 0001:00016974      c1478_0
 0001:00016E58      c1480_0
 0001:00017338      c1524_0
 0001:0001760C      c1526_0
 0001:00017900      c1538_0
 0001:00017A2C      c1538_3
 0001:00017A3C      c1560_0
 0001:00017A58      c1622_0
 0001:00017AB0      c1674_0
 0001:00017B58      c1690_0
 0001:00017C10      c1694_0
 0001:00017DAC      c1702_0
 0001:00017DAC      c1702_3
 0001:00017E38      c1721_0
 0001:00017E5C      c1759_0
 0001:00017F04      c1767_0
 0001:00017F20      c1769_0
 0001:00017F34      c1771_0
 0001:00017F48      c1777_0
 0001:00017F70      c1783_0
 0001:00017F70      c1783_3
 0001:00017FF8      c1783_4
 0001:000180DC      c1785_0
 0001:000182C4      c1787_0
 0001:000184EC      c1845_0
 0001:000184EC      c1845_2
 0001:00018524      c1845_3
 0001:00018534      c1849_0
 0001:000185EC      c1859_0
 0001:0001876C      c1859_3
 0001:000185EC      c1859_4
 0001:0001878C      c1863_0
 0001:00018A84      c1883_0
 0001:00018BDC      c1885_0
 0001:00018D80      c1899_0
 0001:00018DD0      c1977_0
 0001:00018DD0      c1977_3
 0001:00002CB0      c19_0
 0001:00000000      c1_0
 0001:00003508      c23_0
 0001:00003960      c27_0
 0001:0000E8C4      c287_0
 0001:0000E8F0      c289_0
 0001:0000E900      c291_0
 0001:00000150      c2_0
 0001:0000E910      c317_0
 0001:0000EA24      c319_0
 0001:00004008      c31_0
 0001:0000EAC4      c325_0
 0001:0000EAE4      c327_0
 0001:0000EAFC      c329_0
 0001:0000EB98      c329_2
 0001:0000EBB4      c331_0
 0001:0000EBB8      c335_0
 0001:0000F584      c355_0
 0001:0000F818      c357_0
 0001:00004A88      c35_0
 0001:0000F81C      c361_0
 0001:00005008      c37_0
 0001:0000F820      c500_0
 0001:0000F840      c504_0
 0001:0000F864      c508_0
 0001:0000F8B0      c510_0
 0001:0000F93C      c512_0
 0001:0000F954      c526_0
 0001:0000F990      c528_0
 0001:0000F9E4      c534_0
 0001:0000FA40      c536_0
 0001:0000FAB0      c552_0
 0001:0000FB1C      c558_0
 0001:0000FB50      c580_0
 0001:0000FBA4      c584_0
 0001:0000FBDC      c586_0
 0001:0000FBF4      c588_0
 0001:0000FC34      c628_0
 0001:0000FCA4      c632_0
 0001:0000FDFB      c632_3
 0001:00010498      c636_0
 0001:00010498      c636_4
 0001:000105E4      c638_0
 0001:000105F0      c642_0
 0001:0001072C      c642_3
 0001:00010744      c642_4
 0001:0001076C      c646_0
 0001:000107B4      c648_0
 0001:000107D8      c652_0
 0001:00010814      c654_0
 0001:00010874      c660_0
 0001:000108FC      c664_0
 0001:00010944      c666_0
 0001:000109BC      c668_0
 0001:00010BB8      c670_0
 0001:00010D54      c676_0
 0001:00010E70      c678_0
 0001:00010E84      c696_0
 0001:00010EBC      c698_0
 0001:0000550C      c69_0
 0001:00006A94      c71_0
 0001:00010EDC      c720_0
 0001:0000840C      c73_0
 0001:00010F40      c752_0
 0001:00010FA4      c754_0
 0001:00010FAC      c756_0
 0001:000095B8      c75_0
 0001:00000574      c7_0
 0001:0001102C      c810_0
 0001:000110BC      c818_0
 0001:0001113C      c824_0
 0001:0001126C      c840_0
 0001:000112C8      c844_0
 0001:000112EC      c850_0
 0001:000114CC      c852_0
 0001:000114F0      c858_0
 0001:00009E84      c85_0
 0001:000115CC      c872_0
 0001:000115F0      c876_0
 0001:00011730      c906_0
 0001:000119EC      c908_0
 0001:00011A64      c912_0
 0001:00011A6C      c914_0
 0001:0000A74C      c91_0
 0001:00011C0C      c922_0
 0001:00011D1C      c932_0
 0001:0000AAE0      c93_0
 0001:00011DB0      c942_0
 0001:0000B020      c95_0
 0001:00011DD4      c968_0
 0001:0001260C      c976_0
 0001:0000BCA4      c97_0
 0001:00012838      c986_0
 0001:0000C5B4      c99_0
 0001:00000B1C      c9_0
 0002:0000324C      d101_1
 0002:000046DC      d1036_1
 0002:00004754      d1116_0
 0002:00004958      d1118_1
 0002:00004994      d1120_1
 0002:000049E4      d1122_0
 0002:00004AE4      d1144_1
 0002:00004BFC      d1146_0
 0002:00004E5C      d1148_1
 0002:00000C10      d11_1
 0002:00004EC4      d1278_1
 0002:00004F84      d1334_1
 0002:00004FEC      d1336_1
 0002:00005054      d1338_0
 0002:00005058      d1392_0
 0002:00001034      d13_1
 0002:000050D4      d1402_0
 0002:000050DC      d1440_1
 0002:000050E4      d1466_1
 0002:000050EC      d1468_1
 0002:00005100      d1470_1
 0002:00005128      d1478_1
 0002:00005150      d1480_1
 0002:00005178      d1538_1
 0002:000051C0      d1674_1
 0002:000051E4      d1690_1
 0002:00005208      d1692_1
 0002:0000520C      d1694_1
 0002:0000521C      d1702_1
 0002:00005244      d1721_1
 0002:00005264      d1723_0
 0002:00005268      d1759_1
 0002:00005274      d1779_0
 0002:0000527C      d1781_0
 0002:00005284      d1783_1
 0002:000052D8      d1785_1
 0002:00005300      d1787_1
 0002:00005324      d1841_0
 0002:00005328      d1843_0
 0002:0000532C      d1845_1
 0002:0000534C      d1849_1
 0002:00005350      d1859_1
 0002:000053A4      d1863_1
 0002:00005404      d1881_0
 0002:00005408      d1883_1
 0002:0000540C      d1977_1
 0002:00001180      d19_1
 0002:00000098      d1_1
 0002:000012FC      d23_1
 0002:0000013C      d2_1
 0002:000035C0      d317_1
 0002:000035C4      d319_1
 0002:000013DC      d31_1
 0002:0000365C      d329_1
 0002:0000367C      d335_1
 0002:000015FC      d35_1
 0002:000019E4      d37_1
 0002:000036BC      d630_0
 0002:000036C0      d632_1
 0002:000039E0      d634_1
 0002:00003A1C      d636_1
 0002:00003B00      d642_1
 0002:00003B14      d678_1
 0002:00001BC8      d69_1
 0002:00001D98      d71_1
 0002:00003B18      d732_1
 0002:00002118      d73_1
 0002:00003B1C      d758_0
 0002:00002460      d75_1
 0002:000003E8      d7_1
 0002:00003B20      d830_0
 0002:00003FD0      d832_0
 0002:0000409C      d842_0
 0002:000040A0      d844_1
 0002:000027B0      d85_1
 0002:000040A4      d908_1
 0002:000041D0      d932_1
 0002:00002A24      d93_1
 0002:000041DC      d940_1
 0002:00002AFC      d95_1
 0002:00004658      d968_1
 0002:00002E94      d97_1
 0002:00002FC8      d99_1
 0002:000004BC      d9_1
 0001:000107CF      invokeHnd()
 0001:000107B4      jump()
 0001:0000E8F0      operator delete(void *)
 0001:0000E900      operator delete[](void *)
 0001:00010420      std::terminate()
 0001:00010470      std::unexpected()
 0004:00000000      t636_3

  Address         Publics by Value

 0001:00000000      c1_0
 0001:00000000      __acrtused
 0001:00000059      __GetExceptDLLinfo
 0001:0000005E      __isDLL
 0001:00000066      __getHInstance
 0001:00000140      ___System__GetTls
 0001:00000140      Sysinit::__linkproc__ __fastcall GetTls()
 0001:00000150      _main
 0001:00000150      c2_0
 0001:00000574      c7_0
 0001:00000574      __m_copy
 0001:0000061E      __v_copy
 0001:00000695      _px_copy
 0001:000006F7      _m_move
 0001:00000844      _v_move
 0001:000008F4      _mv_move
 0001:000009F2      _vm_move
 0001:00000B1C      _err_list_attach
 0001:00000B1C      c9_0
 0001:00000C09      _err_list_free
 0001:00000C58      _err_is_list_attached
 0001:00000C89      _set_err_flag
 0001:00000C9C      _count_errs
 0001:00000CAF      _ev_err
 0001:0000111D      _catch_FPE
 0001:00001134      c11_0
 0001:00001134      _skipjunk
 0001:00001191      _m_finput
 0001:000011C5      _im_finput
 0001:0000141C      _bm_finput
 0001:0000156C      _px_finput
 0001:000015A0      _ipx_finput
 0001:0000173A      _bpx_finput
 0001:0000187A      _v_finput
 0001:000018AE      _ifin_vec
 0001:00001A3F      _bfin_vec
 0001:00001B1C      _setformat
 0001:00001B3B      _m_foutput
 0001:00001C51      _px_foutput
 0001:00001CEB      _v_foutput
 0001:00001DBB      _m_dump
 0001:00001F0B      _px_dump
 0001:00001F97      _v_dump
 0001:0000207C      _m_get
 0001:0000207C      c13_0
 0001:000021E4      _px_get
 0001:000022C0      _v_get
 0001:00002396      _m_free
 0001:00002447      _px_free
 0001:000024D9      _v_free
 0001:0000256B      _m_resize
 0001:00002859      _px_resize
 0001:0000294B      _v_resize
 0001:00002A46      _v_get_vars
 0001:00002A70      _iv_get_vars
 0001:00002A9A      _m_get_vars
 0001:00002AC9      _px_get_vars
 0001:00002AF3      _v_resize_vars
 0001:00002B21      _iv_resize_vars
 0001:00002B4F      _m_resize_vars
 0001:00002B80      _px_resize_vars
 0001:00002BAE      _v_free_vars
 0001:00002BEE      _iv_free_vars
 0001:00002C2E      _px_free_vars
 0001:00002C6E      _m_free_vars
 0001:00002CB0      c19_0
 0001:00002CB0      _px_inv
 0001:00002D41      _px_mlt
 0001:00002E33      _px_vec
 0001:00003022      _pxinv_vec
 0001:00003144      _px_transp
 0001:00003231      _px_sign
 0001:0000329A      _px_cols
 0001:000033D1      _px_rows
 0001:00003508      _v_zero
 0001:00003508      c23_0
 0001:0000353D      _iv_zero
 0001:00003578      _m_zero
 0001:000035D3      _m_ident
 0001:00003632      _px_ident
 0001:0000366D      _mrand
 0001:000036FC      _mrandlist
 0001:0000379F      _smrand
 0001:000037FC      _v_rand
 0001:00003834      _m_rand
 0001:0000387D      _v_ones
 0001:000038C3      _m_ones
 0001:0000391A      _v_count
 0001:00003960      ___ip__
 0001:00003960      c27_0
 0001:00003A60      ___mltadd__
 0001:00003B30      ___smlt__
 0001:00003B58      ___add__
 0001:00003B87      ___sub__
 0001:00003BB6      ___zero__
 0001:00003BCF      ___ip4__
 0001:00003DB7      ___lc4__
 0001:00003F66      ___ma4__
 0001:00004008      _iv_get
 0001:00004008      c31_0
 0001:000040D1      _iv_free
 0001:00004166      _iv_resize
 0001:00004241      _iv_copy
 0001:00004295      _iv_move
 0001:00004345      _iv_add
 0001:000043E8      _iv_sub
 0001:0000448B      _iv_foutput
 0001:00004535      _iv_finput
 0001:00004569      _iiv_finput
 0001:000046F3      _biv_finput
 0001:000047D9      _iv_dump
 0001:0000489B      _iv_sort
 0001:00004A88      c35_0
 0001:00004A88      _mem_attach_list
 0001:00004B1E      _mem_free_vars
 0001:00004B68      _mem_is_list_attached
 0001:00004BB1      _mem_dump_list
 0001:00004C76      _mem_info_on
 0001:00004C89      _mem_info_is_on
 0001:00004C93      _mem_info_bytes
 0001:00004CE9      _mem_info_numvar
 0001:00004D40      _mem_info_file
 0001:00004E48      _mem_bytes_list
 0001:00004F3E      _mem_numvar_list
 0001:00005008      c37_0
 0001:00005177      _mem_stat_reg_list
 0001:00005244      _mem_stat_mark
 0001:00005277      _mem_stat_free_list
 0001:000053DE      _mem_stat_dump
 0001:000054D0      _mem_stat_show_mark
 0001:000054DA      _mem_stat_reg_vars
 0001:0000550C      c69_0
 0001:0000550C      _bd_get
 0001:000055DC      _bd_free
 0001:0000563C      _bd_resize
 0001:000058AF      _bd_copy
 0001:00005A10      _band2mat
 0001:00005B17      _mat2band
 0001:00005C5D      _bd_transp
 0001:00006131      _bdLUfactor
 0001:00006396      _bdLUsolve
 0001:00006588      _bdLDLfactor
 0001:00006760      _bdLDLsolve
 0001:00006913      _bd_mv_mlt
 0001:00006A94      _sp_get_val
 0001:00006A94      c71_0
 0001:00006B24      _sp_set_val
 0001:00006CF4      _sp_mv_mlt
 0001:00006E03      _sp_vm_mlt
 0001:00006F23      _sp_get
 0001:0000712C      _sp_free
 0001:00007282      _sp_copy
 0001:000074EB      _sp_col_access
 0001:000075CB      _sp_diag_access
 0001:00007629      _sp_m2dense
 0001:000076E2      _sp_add
 0001:000078BD      _sp_sub
 0001:00007A98      _sp_mltadd
 0001:00007C7F      _sp_smlt
 0001:00007D28      _sp_zero
 0001:00007D97      _sp_copy2
 0001:00007FCF      _sp_resize
 0001:00008278      _sp_compact
 0001:00008368      _sp_get_vars
 0001:0000839A      _sp_resize_vars
 0001:000083CB      _sp_free_vars
 0001:0000840C      _sprow_dump
 0001:0000840C      c73_0
 0001:000084C5      _sprow_idx
 0001:0000853B      _sprow_get
 0001:00008618      _sprow_xpd
 0001:000087E2      _sprow_resize
 0001:00008922      _sprow_free
 0001:00008997      _sprow_merge
 0001:00008AF5      _sprow_copy
 0001:00008C66      _sprow_mltadd
 0001:00008E85      _sprow_add
 0001:000090A4      _sprow_sub
 0001:000092BF      _sprow_smlt
 0001:000093C2      _sprow_foutput
 0001:00009428      _sprow_set_val
 0001:000095B8      c75_0
 0001:000095B8      _sp_foutput
 0001:00009725      _sp_dump
 0001:0000999C      _sp_finput
 0001:00009E84      _iter_std_info
 0001:00009E84      c85_0
 0001:00009ECC      _iter_std_stop_crit
 0001:00009F06      _iter_get
 0001:00009FF2      _iter_free
 0001:0000A063      _iter_resize
 0001:0000A126      _iter_dump
 0001:0000A224      _iter_copy2
 0001:0000A2F7      _iter_copy
 0001:0000A3D3      _iter_gen_sym
 0001:0000A513      _iter_gen_nonsym
 0001:0000A63B      _iter_gen_nonsym_posdef
 0001:0000A74C      ___zconj__
 0001:0000A74C      c91_0
 0001:0000A778      ___zip__
 0001:0000A884      ___zmltadd__
 0001:0000A99C      ___zmlt__
 0001:0000AA1D      ___zadd__
 0001:0000AA71      ___zsub__
 0001:0000AAC5      ___zzero__
 0001:0000AAE0      __zm_copy
 0001:0000AAE0      c93_0
 0001:0000AB8A      __zv_copy
 0001:0000AC01      _zm_move
 0001:0000AD4E      _zv_move
 0001:0000ADF8      _zmv_move
 0001:0000AEF6      _zvm_move
 0001:0000B020      c95_0
 0001:0000B020      _z_finput
 0001:0000B0FE      _zm_finput
 0001:0000B132      _izm_finput
 0001:0000B3B1      _bzm_finput
 0001:0000B521      _zv_finput
 0001:0000B555      _izv_finput
 0001:0000B70D      _bzv_finput
 0001:0000B803      _setzformat
 0001:0000B822      _z_foutput
 0001:0000B861      _zm_foutput
 0001:0000B97D      _zv_foutput
 0001:0000BA55      _zm_dump
 0001:0000BBB7      _zv_dump
 0001:0000BCA4      c97_0
 0001:0000BCA4      _zv_zero
 0001:0000BCD9      _zm_zero
 0001:0000BD1F      _zm_get
 0001:0000BE85      _zv_get
 0001:0000BF58      _zm_free
 0001:0000C009      _zv_free
 0001:0000C09B      _zm_resize
 0001:0000C37E      _zv_resize
 0001:0000C479      _zv_get_vars
 0001:0000C4A3      _zm_get_vars
 0001:0000C4D2      _zv_resize_vars
 0001:0000C500      _zm_resize_vars
 0001:0000C531      _zv_free_vars
 0001:0000C571      _zm_free_vars
 0001:0000C5B4      __zin_prod
 0001:0000C5B4      c99_0
 0001:0000C65C      _zv_mlt
 0001:0000C718      _zv_add
 0001:0000C79B      _zv_mltadd
 0001:0000C9BB      _zv_sub
 0001:0000CA40      _zv_map
 0001:0000CAE0      __zv_map
 0001:0000CB83      _zv_lincomb
 0001:0000CC9D      _zv_linlist
 0001:0000CDE1      _zv_star
 0001:0000CEF4      _zv_slash
 0001:0000D070      _zv_sum
 0001:0000D0F8      _px_zvec
 0001:0000D313      _pxinv_zvec
 0001:0000D447      _zv_rand
 0001:0000D484      _zm_add
 0001:0000D484      c101_0
 0001:0000D551      _zm_sub
 0001:0000D61E      _zm_mlt
 0001:0000D77A      _zmma_mlt
 0001:0000D896      _zmam_mlt
 0001:0000DA06      _zmv_mlt
 0001:0000DAF1      _zsm_mlt
 0001:0000DB8D      _zvm_mlt
 0001:0000DCBD      _zm_adjoint
 0001:0000DEB0      _zswap_rows
 0001:0000DFB4      _zswap_cols
 0001:0000E0BC      _mz_mltadd
 0001:0000E264      _zmv_mltadd
 0001:0000E428      _zvm_mltadd
 0001:0000E604      _zget_col
 0001:0000E6AD      _zget_row
 0001:0000E747      _zset_col
 0001:0000E7F4      _zset_row
 0001:0000E877      _zm_rand
 0001:0000E8C4      ___org_calloc
 0001:0000E8C4      _calloc
 0001:0000E8C4      c287_0
 0001:0000E8F0      operator delete(void *)
 0001:0000E8F0      c289_0
 0001:0000E8F0      ___org_delete
 0001:0000E900      c291_0
 0001:0000E900      operator delete[](void *)
 0001:0000E900      ___org_deletea
 0001:0000E910      _virt_reserve
 0001:0000E910      c317_0
 0001:0000E97C      _virt_alloc
 0001:0000E9A4      _virt_commit
 0001:0000E9F0      _virt_decommit
 0001:0000EA08      _virt_release
 0001:0000EA24      c319_0
 0001:0000EA44      ___CRTL_MEM_GetBorMemPtrs
 0001:0000EAC0      ___CRTL_MEM_CheckBorMem
 0001:0000EAC4      ___org_malloc
 0001:0000EAC4      _malloc
 0001:0000EAC4      c325_0
 0001:0000EAD4      _free
 0001:0000EAD4      ___org_free
 0001:0000EAE4      c327_0
 0001:0000EAE4      _realloc
 0001:0000EAE4      ___org_realloc
 0001:0000EAFC      ___CRTL_MEM_Revector
 0001:0000EAFC      c329_0
 0001:0000EB98      c329_2
 0001:0000EBA4      __free_heaps
 0001:0000EBB4      ___CRTL_MEM_UseBorMM
 0001:0000EBB4      c331_0
 0001:0000EBB8      c335_0
 0001:0000F19C      __internal_free
 0001:0000F30C      __internal_malloc
 0001:0000F50C      __phys_avail
 0001:0000F524      __internal_free_heaps
 0001:0000F584      __expand
 0001:0000F584      c355_0
 0001:0000F584      ___org__expand
 0001:0000F764      __internal_realloc
 0001:0000F7FC      ___org__msize
 0001:0000F7FC      __msize
 0001:0000F818      ___CRTL_VCL_Init
 0001:0000F818      c357_0
 0001:0000F81C      ___CRTL_VCLLIB_Linkage
 0001:0000F81C      c361_0
 0001:0000F820      c500_0
 0001:0000F820      ___org_memchr
 0001:0000F820      _memchr
 0001:0000F840      c504_0
 0001:0000F840      ___org_memcpy
 0001:0000F840      _memcpy
 0001:0000F864      c508_0
 0001:0000F864      ___org_memmove
 0001:0000F864      _memmove
 0001:0000F8B0      ___org_memset
 0001:0000F8B0      _memset
 0001:0000F8B0      c510_0
 0001:0000F93C      c512_0
 0001:0000F93C      __wmemset
 0001:0000F954      _strcat
 0001:0000F954      ___org_strcat
 0001:0000F954      c526_0
 0001:0000F990      _strchr
 0001:0000F990      ___org_strchr
 0001:0000F990      c528_0
 0001:0000F9E4      _strlen
 0001:0000F9E4      ___org_strlen
 0001:0000F9E4      c534_0
 0001:0000FA40      c536_0
 0001:0000FA40      _strncat
 0001:0000FA40      ___org_strncat
 0001:0000FAB0      ___org_memcmp
 0001:0000FAB0      c552_0
 0001:0000FAB0      _memcmp
 0001:0000FB1C      ___org_strdup
 0001:0000FB1C      _strdup
 0001:0000FB1C      c558_0
 0001:0000FB50      c580_0
 0001:0000FB50      ___org_strstr
 0001:0000FB50      _strstr
 0001:0000FBA4      __stpcpy
 0001:0000FBA4      c584_0
 0001:0000FBDC      c586_0
 0001:0000FBDC      _wcslen
 0001:0000FBF4      _wcscpy
 0001:0000FBF4      c588_0
 0001:0000FC34      c628_0
 0001:0000FC34      __InitExceptBlockLDTC
 0001:0000FC6D      __ExitExceptBlock
 0001:0000FC7B      __ExceptionHandler
 0001:0000FCA4      c632_0
 0001:0000FDFB      c632_3
 0001:00010158      __typeIDname(tpid *)
 0001:00010190      __isSameTypeID(tpid *, tpid *)
 0001:0001026C      __isCompatTypeID(tpid *, tpid *, int, tpid * *)
 0001:0001037C      __adjustClassAdr(void *, tpid *, tpid *)
 0001:000103F8      _InitTermAndUnexPtrs()
 0001:00010420      std::terminate()
 0001:00010470      std::unexpected()
 0001:00010498      c636_4
 0001:00010498      c636_0
 0001:000104C4      ___call_terminate
 0001:00010538      ___call_unexpected
 0001:00010570      __ExceptInit
 0001:000105BC      __GetExceptDLLinfoInternal
 0001:000105E4      c638_0
 0001:000105E4      ___DefHandler
 0001:000105F0      c642_0
 0001:000106E0      __setexc
 0001:000106FC      __unsetexc
 0001:0001070C      __SetUserHandler
 0001:00010720      __unsetuserhandler
 0001:0001072C      c642_3
 0001:0001072C      __init_except
 0001:00010744      __exit_except
 0001:00010744      c642_4
 0001:00010758      __InitDefaultHander
 0001:0001076C      c646_0
 0001:0001076C      __SetExceptionHandler
 0001:00010781      __UnsetExceptionHandler
 0001:000107AD      __UnwindException
 0001:000107B4      jump()
 0001:000107B4      c648_0
 0001:000107BA      ___doGlobalUnwind
 0001:000107CF      invokeHnd()
 0001:000107D8      ___access
 0001:000107D8      c652_0
 0001:00010814      c654_0
 0001:00010814      ___close
 0001:00010874      ___eof
 0001:00010874      c660_0
 0001:000108FC      c664_0
 0001:000108FC      ___isatty
 0001:0001092C      ___isatty_osfhandle
 0001:00010944      ___lseek
 0001:00010944      c666_0
 0001:000109BC      c668_0
 0001:000109BC      ___open
 0001:00010BB8      c670_0
 0001:00010C24      ___read
 0001:00010D54      c676_0
 0001:00010D54      ___write
 0001:00010E70      c678_0
 0001:00010E84      __flushall
 0001:00010E84      c696_0
 0001:00010EBC      __fputc
 0001:00010EBC      c698_0
 0001:00010EBC      ___org__fputc
 0001:00010EDC      ___org__rtl_read
 0001:00010EDC      __rtl_read
 0001:00010EDC      c720_0
 0001:00010F24      ___org__read
 0001:00010F24      __read
 0001:00010F40      c752_0
 0001:00010F40      ___org__rtl_write
 0001:00010F40      __rtl_write
 0001:00010F88      __write
 0001:00010F88      ___org__write
 0001:00010FA4      c754_0
 0001:00010FA4      ___org_access
 0001:00010FA4      _access
 0001:00010FAC      __allocbuf
 0001:00010FAC      c756_0
 0001:0001102C      c810_0
 0001:0001102C      ___org_fclose
 0001:0001102C      _fclose
 0001:000110BC      _fflush
 0001:000110BC      ___org_fflush
 0001:000110BC      c818_0
 0001:0001113C      c824_0
 0001:0001113C      _fgets
 0001:0001113C      ___org_fgets
 0001:0001126C      __flushout
 0001:0001126C      c840_0
 0001:000112C8      c844_0
 0001:000112C8      __initfmode
 0001:000112D8      __initfileinfo
 0001:000112EC      c850_0
 0001:000113C8      ___openfp
 0001:00011474      ___getfp
 0001:000114A0      _fopen
 0001:000114A0      ___org_fopen
 0001:000114CC      c852_0
 0001:000114CC      ___org_fprintf
 0001:000114CC      _fprintf
 0001:000114F0      ___fputn
 0001:000114F0      c858_0
 0001:000115CC      c872_0
 0001:000115CC      ___org_fscanf
 0001:000115CC      _fscanf
 0001:000115F0      c876_0
 0001:0001164C      ___org_fseek
 0001:0001164C      _fseek
 0001:000116B0      _ftell
 0001:000116B0      ___org_ftell
 0001:00011730      __get_handle
 0001:00011730      c906_0
 0001:00011770      __dup_handle
 0001:000117D8      __free_handle
 0001:00011890      __init_handles
 0001:000119EC      ___IOerror
 0001:000119EC      c908_0
 0001:00011A30      ___DOSerror
 0001:00011A50      ___NTerror
 0001:00011A64      _isatty
 0001:00011A64      ___org_isatty
 0001:00011A64      c912_0
 0001:00011A6C      c914_0
 0001:00011B0C      __fgetc
 0001:00011B0C      ___org__fgetc
 0001:00011B24      _fgetc
 0001:00011B24      ___org_fgetc
 0001:00011C0C      ___org_fputc
 0001:00011C0C      _fputc
 0001:00011C0C      c922_0
 0001:00011D1C      c932_0
 0001:00011D1C      ___mkname
 0001:00011D6C      ___tmpnam
 0001:00011DB0      _printf
 0001:00011DB0      ___org_printf
 0001:00011DB0      c942_0
 0001:00011DD4      __scanner
 0001:00011DD4      c968_0
 0001:0001260C      c976_0
 0001:0001260C      ___scantoint64
 0001:00012838      ___org_setvbuf
 0001:00012838      c986_0
 0001:00012838      _setvbuf
 0001:00012888      c1000_0
 0001:000128B4      ___org_sscanf
 0001:000128B4      _sscanf
 0001:000128D8      ___org_vsscanf
 0001:000128D8      _vsscanf
 0001:000128FC      c1008_0
 0001:000128FC      __init_streams
 0001:000129B8      c1008_1
 0001:000129B8      __exit_streams
 0001:00012A14      ___org_ungetc
 0001:00012A14      _ungetc
 0001:00012A14      c1020_0
 0001:00012A64      c1024_0
 0001:00012A64      __unlink
 0001:00012A80      c1036_0
 0001:00012B30      ___vprinter
 0001:0001346C      c1112_0
 0001:0001346C      __xfclose
 0001:0001349C      __xfflush
 0001:0001349C      c1114_0
 0001:000134C4      __win32DateTimeToPOSIX
 0001:000134C4      c1120_0
 0001:00013788      __getLocaleNumericInfo
 0001:00013788      c1128_0
 0001:000137DC      _isalnum
 0001:000137DC      c1136_0
 0001:000137F4      _isascii
 0001:00013808      _isalpha
 0001:00013820      _iscntrl
 0001:00013834      _isdigit
 0001:00013848      _isgraph
 0001:00013860      _islower
 0001:00013874      _isprint
 0001:0001388C      _ispunct
 0001:000138A0      _isspace
 0001:000138B4      _isupper
 0001:000138C8      _isxdigit
 0001:000138E0      _iswalnum
 0001:000138E0      c1138_0
 0001:000138F8      _iswascii
 0001:0001390C      _iswalpha
 0001:00013924      _iswcntrl
 0001:00013938      _iswdigit
 0001:0001394C      _iswgraph
 0001:00013964      _iswlower
 0001:00013978      _iswprint
 0001:00013990      _iswpunct
 0001:000139A4      _iswspace
 0001:000139B8      _iswupper
 0001:000139CC      _iswxdigit
 0001:000139E4      c1140_0
 0001:000139E4      ___isctype
 0001:00013A28      c1142_0
 0001:00013A28      ___iswctype
 0001:00013A80      c1144_0
 0001:00013A80      __setLocale32W
 0001:00013B30      __setLocale32A
 0001:00013FF8      __lockLocale
 0001:00014004      __unlockLocale
 0001:00014010      c1144_2
 0001:00014010      __initLocale
 0001:00014014      c1144_3
 0001:00014014      __cleanLocale
 0001:00014080      __getLocale
 0001:000142D8      __setNewCategories
 0001:00014494      __cleanCategories
 0001:00014840      __setLocaleFromString
 0001:00014A60      __addCategoryName
 0001:00014C00      c1148_0
 0001:00014C00      __allocAndGetValue
 0001:00014C5C      __getShortValue
 0001:00014CB8      __setCType
 0001:00014DA0      __setMonetary
 0001:00014F20      __setTime
 0001:0001537C      __setNumeric
 0001:00015404      __setCollate
 0001:00015410      c1150_0
 0001:00015410      __llocaleconv
 0001:000154A8      c1168_0
 0001:000154A8      __lstrlwr
 0001:000154CC      __ltolower
 0001:000154CC      c1180_0
 0001:00015520      c1188_0
 0001:00015520      ___org_mblen
 0001:00015520      _mblen
 0001:0001559C      _mbtowc
 0001:0001559C      ___org_mbtowc
 0001:00015670      _wctomb
 0001:00015670      ___org_wctomb
 0001:000156E4      _mbstowcs
 0001:000156E4      ___org_mbstowcs
 0001:0001584C      _wcstombs
 0001:0001584C      ___org_wcstombs
 0001:000159F0      __llmul
 0001:000159F0      c1238_0
 0001:00015A13      __lldiv
 0001:00015A8B      __lludiv
 0001:00015AD4      __llmod
 0001:00015B4E      __llumod
 0001:00015B9C      __llshl
 0001:00015BB8      __llshr
 0001:00015BD4      __llushr
 0001:00015BF0      ___org_ltoa
 0001:00015BF0      c1268_0
 0001:00015BF0      _ltoa
 0001:00015BF8      __pow10
 0001:00015BF8      c1278_0
 0001:00015D80      ___org_atol
 0001:00015D80      _atol
 0001:00015D80      c1302_0
 0001:00015DE8      _atoi
 0001:00015DE8      ___org_atoi
 0001:00015DF8      __clear87
 0001:00015DF8      c1314_0
 0001:00015E0C      c1328_0
 0001:00015E0C      __control87
 0001:00015E3C      c1330_0
 0001:00015E3C      ___realcvt
 0001:00015E42      ___nextreal
 0001:00015E48      __scantod
 0001:00015E4E      __scanrslt
 0001:00015E54      c1334_0
 0001:00015E6C      c1336_0
 0001:00015E84      c1358_0
 0001:00015E84      _fabs
 0001:00015E94      c1376_0
 0001:00015E94      __fpreset
 0001:00015EAC      __fuildq
 0001:00015EAC      c1384_0
 0001:00015EDC      c1386_0
 0001:00015EDC      __fuistq
 0001:00015F00      c1388_0
 0001:00015F00      __fxam
 0001:00015F14      ___int64toa
 0001:00015F14      c1404_0
 0001:00015FC8      ___ldtrunc
 0001:00015FC8      c1414_0
 0001:000160E0      ___longtoa
 0001:000160E0      c1424_0
 0001:00016154      ___utoa
 0001:00016170      _itoa
 0001:00016170      ___org_itoa
 0001:00016170      c1432_0
 0001:000161A0      ___org_ultoa
 0001:000161A0      _ultoa
 0001:000161C0      __ltoa
 0001:000161E8      __matherr
 0001:000161E8      c1436_0
 0001:000161E8      ___org__matherr
 0001:00016214      c1438_0
 0001:00016214      __matherrl
 0001:00016214      ___org__matherrl
 0001:00016244      c1440_0
 0001:00016244      __initmatherr
 0001:0001625C      c1462_0
 0001:0001625C      __qdiv10
 0001:00016284      c1464_0
 0001:00016284      __qmul10
 0001:000162B4      _srand
 0001:000162B4      c1466_0
 0001:000162D0      c1466_2
 0001:000162DC      _rand
 0001:000162F8      __lrand
 0001:00016344      c1468_0
 0001:00016628      __cvt_init
 0001:00016640      c1470_0
 0001:0001695C      __cvt_initw
 0001:00016974      c1478_0
 0001:00016E40      __scan_init
 0001:00016E58      c1480_0
 0001:00017320      __scan_initw
 0001:00017338      ___xcvt
 0001:00017338      c1524_0
 0001:0001760C      c1526_0
 0001:0001760C      ___xcvtw
 0001:00017900      __setmbcp
 0001:00017900      c1538_0
 0001:00017A24      __getmbcp
 0001:00017A2C      __initMBCSTable
 0001:00017A2C      c1538_3
 0001:00017A3C      c1560_0
 0001:00017A3C      __ismbcspace
 0001:00017A58      c1622_0
 0001:00017A58      __mbsrchr
 0001:00017AB0      c1674_0
 0001:00017AF8      __assert
 0001:00017B58      c1690_0
 0001:00017BA8      __ErrorMessageHelper
 0001:00017C10      c1694_0
 0001:00017C68      __ErrorMessage
 0001:00017D84      ___ErrorMessage
 0001:00017D94      __ErrorExit
 0001:00017DAC      c1702_0
 0001:00017DAC      c1702_3
 0001:00017E38      __abort
 0001:00017E38      c1721_0
 0001:00017E4C      _abort
 0001:00017E5C      c1759_0
 0001:00017EB4      _exit
 0001:00017ECC      __exit
 0001:00017EE4      __cexit
 0001:00017EF4      __c_exit
 0001:00017F04      __init_wild_handlers
 0001:00017F04      c1767_0
 0001:00017F20      __argv_default_expand
 0001:00017F20      c1769_0
 0001:00017F34      __wargv_default_expand
 0001:00017F34      c1771_0
 0001:00017F48      __init_setargv_handlers
 0001:00017F48      c1777_0
 0001:00017F70      __setargv
 0001:00017F70      c1783_0
 0001:00017F70      c1783_3
 0001:00017FF8      c1783_4
 0001:00017FF8      __exitargv
 0001:000180DC      __handle_setargv
 0001:000180DC      c1785_0
 0001:00018234      __handle_exitargv
 0001:000182C4      c1787_0
 0001:000182C4      __handle_wsetargv
 0001:00018458      __handle_wexitargv
 0001:000184EC      c1845_0
 0001:000184EC      c1845_2
 0001:00018524      c1845_3
 0001:00018534      c1849_0
 0001:00018534      _setjmp
 0001:0001856A      _longjmp
 0001:000185E6      __DoLongJump__
 0001:000185EC      c1859_4
 0001:000185EC      c1859_0
 0001:00018620      __expandblock
 0001:0001876C      c1859_3
 0001:0001878C      c1863_0
 0001:000189B4      _signal
 0001:00018A14      _raise
 0001:00018A14      ___org_raise
 0001:00018A84      __terminate
 0001:00018A84      c1883_0
 0001:00018A94      __create_shmem
 0001:00018A9C      __init_exit_proc
 0001:00018B70      __cleanup
 0001:00018BDC      c1885_0
 0001:00018BDC      __startup
 0001:00018D80      c1899_0
 0001:00018D80      ___CRTL_TLS_Alloc
 0001:00018D88      ___CRTL_TLS_Free
 0001:00018D98      ___CRTL_TLS_GetValue
 0001:00018DA8      ___CRTL_TLS_SetValue
 0001:00018DBC      ___CRTL_TLS_InitThread
 0001:00018DC4      ___CRTL_TLS_ExitThread
 0001:00018DCC      ___CRTL_TLS_GetInfo
 0001:00018DD0      c1977_3
 0001:00018DD0      c1977_0
 0001:00018DFB      ___JumpToCatch__
 0001:00019065      ___raiseDebuggerException
 0001:00019420      _ThrowExceptionLDTC(void *, void *, void *, void *, unsigned int, unsigned int, unsigned int, unsigned char *, void *)
 0001:00019455      _ReThrowException(unsigned int, unsigned char *)
 0001:000194C0      __Global_unwind
 0001:000195FC      _CatchCleanup()
 0001:00019B2C      __Local_unwind
 0001:00019B3F      __Return_unwind
 0001:00019BA0      ____ExceptionHandler
 0001:0001A91E      __CurrExcContext
 0002:00000098      d1_1
 0002:000000DC      ___isGUI
 0002:00000114      ___isVCLPackage
 0002:00000115      ___isDLL
 0002:00000122      ___useDynamicTLS
 0002:00000123      __TLS_index
 0002:00000127      __TLS_index4
 0002:0000012B      __hInstance
 0002:00000130      ___CPPdebugHook_segment
 0002:00000130      ___CPPdebugHook
 0002:00000134      __PackageInfoTable
 0002:0000013C      d2_1
 0002:000003E8      d7_1
 0002:000004BC      d9_1
 0002:00000C10      d11_1
 0002:00001034      d13_1
 0002:00001180      d19_1
 0002:000012FC      d23_1
 0002:000013DC      d31_1
 0002:000015FC      d35_1
 0002:00001680      _mem_connect
 0002:000019E4      d37_1
 0002:00001BC8      d69_1
 0002:00001D98      d71_1
 0002:00002118      d73_1
 0002:00002460      d75_1
 0002:000027B0      d85_1
 0002:00002A24      d93_1
 0002:00002AFC      d95_1
 0002:00002E94      d97_1
 0002:00002FC8      d99_1
 0002:0000324C      d101_1
 0002:000035C0      d317_1
 0002:000035C4      d319_1
 0002:0000365C      d329_1
 0002:00003660      __heap_redirector
 0002:0000367C      d335_1
 0002:0000367C      __virt_heap_size
 0002:00003680      __virt_chunk_size
 0002:00003684      __virt_chunk_size2
 0002:00003688      __nv_heap_size
 0002:0000368C      __smalloc_threshold
 0002:00003690      __virt_chunk_free
 0002:00003694      __virt_chunk_free2
 0002:00003698      __firstHeap
 0002:0000369C      __lastHeap
 0002:000036A0      __linktable
 0002:000036A4      __freeStart
 0002:000036B0      __rover
 0002:000036B8      ___allocated
 0002:000036BC      d630_0
 0002:000036BC      ___xxPersonality
 0002:000036C0      d632_1
 0002:000039E0      d634_1
 0002:000039E0      ___terminatePTR
 0002:000039E4      ___unexpectdPTR
 0002:000039E8      __chtbl__ std::terminate()
 0002:00003A08      __ectbl__ std::terminate()
 0002:00003A1C      ___CPPexceptionList
 0002:00003A1C      d636_1
 0002:00003A20      ___exceptFlags
 0002:00003A24      ___throwFileName
 0002:00003A28      ___throwLineNumber
 0002:00003A2C      ___throwExceptionName
 0002:00003A30      ___exceptStaticBuffP
 0002:00003A34      ___exceptMemAllocVars
 0002:00003A38      ___ExceptStaticXbuff
 0002:00003AB8      __ExceptVarsSize
 0002:00003ACC      __chtbl__ __call_terminate()
 0002:00003AEC      __ectbl__ __call_terminate()
 0002:00003B00      d642_1
 0002:00003B00      __stkchk
 0002:00003B14      __cfinfo_get
 0002:00003B14      d678_1
 0002:00003B18      d732_1
 0002:00003B18      __notUmask
 0002:00003B1C      __fileinfo
 0002:00003B1C      d758_0
 0002:00003B20      __streams
 0002:00003B20      d830_0
 0002:00003FD0      d832_0
 0002:00003FD0      __nfile
 0002:00003FD4      __openfd
 0002:0000409C      __fmode
 0002:0000409C      d842_0
 0002:000040A0      __fmodeptr
 0002:000040A0      d844_1
 0002:000040A4      d908_1
 0002:000040A4      __dosErrorToSV
 0002:000041D0      d932_1
 0002:000041DC      d940_1
 0002:000041DC      __sys_errlist
 0002:000042A0      __sys_nerr
 0002:00004658      d968_1
 0002:000046DC      d1036_1
 0002:00004754      __chartype
 0002:00004754      d1116_0
 0002:00004958      __localeconvention
 0002:00004958      d1118_1
 0002:00004994      d1120_1
 0002:000049E4      __lower
 0002:000049E4      d1122_0
 0002:00004AE4      ___mb_cur_max
 0002:00004AE4      d1144_1
 0002:00004AE8      ___localeLock
 0002:00004BFC      d1146_0
 0002:00004BFC      _CMonetary
 0002:00004C30      _CNumeric
 0002:00004C48      _CTimeDate
 0002:00004D0C      _CLOCALE
 0002:00004D38      ___locale
 0002:00004E5C      d1148_1
 0002:00004EC4      d1278_1
 0002:00004F84      __realcvtptr
 0002:00004F84      d1334_1
 0002:00004F88      __nextrealptr
 0002:00004F8C      __scantodptr
 0002:00004F90      __scanrsltptr
 0002:00004FEC      d1336_1
 0002:00004FEC      __realcvtwptr
 0002:00004FF0      __nextrealwptr
 0002:00004FF4      __scanwtodptr
 0002:00004FF8      __scanwrsltptr
 0002:00005054      __default87
 0002:00005054      d1338_0
 0002:00005058      d1392_0
 0002:00005058      __huge_flt
 0002:0000505C      __huge_dble
 0002:00005064      __huge_ldble
 0002:0000506E      __max_flt
 0002:00005072      __max_dble
 0002:0000507A      __max_ldble
 0002:00005084      __indefinite
 0002:00005088      __tiny_ldble
 0002:00005094      ___ieee_64_p_inf
 0002:0000509C      ___ieee_64_n_inf
 0002:000050A4      ___ieee_64_p_nanq
 0002:000050AC      ___ieee_64_n_nanq
 0002:000050B4      ___ieee_64_p_nans
 0002:000050BC      ___ieee_64_n_nans
 0002:000050C4      ___ieee_64_p_zero
 0002:000050CC      ___ieee_64_n_zero
 0002:000050D4      __turboFloat
 0002:000050D4      d1402_0
 0002:000050D8      __floatconvert
 0002:000050DC      d1440_1
 0002:000050DC      __pmatherr
 0002:000050E0      __pmatherrl
 0002:000050E4      d1466_1
 0002:000050EC      d1468_1
 0002:00005100      d1470_1
 0002:00005128      d1478_1
 0002:00005150      d1480_1
 0002:00005178      d1538_1
 0002:00005178      __kalpha
 0002:0000517A      __kpunct
 0002:000051C0      d1674_1
 0002:000051E4      d1690_1
 0002:00005208      d1692_1
 0002:00005208      _errno
 0002:0000520C      d1694_1
 0002:0000520C      __messagefunc
 0002:00005210      __messagefile
 0002:0000521C      d1702_1
 0002:00005244      d1721_1
 0002:00005264      ___pCallAtExitProcs
 0002:00005264      d1723_0
 0002:00005268      d1759_1
 0002:00005268      __exitbuf
 0002:0000526C      __exitfopen
 0002:00005270      __exitopen
 0002:00005274      __setargv_ptr
 0002:00005274      d1779_0
 0002:00005278      __exitargv_ptr
 0002:0000527C      d1781_0
 0002:0000527C      __wsetargv_ptr
 0002:00005280      __wexitargv_ptr
 0002:00005284      d1783_1
 0002:00005284      __setargv__
 0002:000052D8      d1785_1
 0002:000052D8      __cmdline_escapes
 0002:00005300      d1787_1
 0002:00005324      __argv_expand_ptr
 0002:00005324      d1841_0
 0002:00005328      d1843_0
 0002:00005328      __wargv_expand_ptr
 0002:0000532C      __argv0
 0002:0000532C      d1845_1
 0002:0000534C      d1849_1
 0002:00005350      d1859_1
 0002:00005350      __setenvp__
 0002:000053A4      d1863_1
 0002:00005404      d1881_0
 0002:00005404      __isWindows
 0002:00005408      d1883_1
 0002:0000540C      d1977_1
 0002:0000540C      ___debuggerDisableTerminateCallback
 0003:00000000      _restart
 0003:00000000      b9_2
 0003:00000020      b11_2
 0003:00000074      b23_2
 0003:00000154      b31_2
 0003:000001A8      b35_2
 0003:000001F8      b37_2
 0003:000021C8      b71_2
 0003:000021D4      b75_2
 0003:00002228      b95_2
 0003:0000227C      b319_2
 0003:0000227C      __bormm_pfn_FreeMem
 0003:00002280      __bormm_pfn_GetMem
 0003:00002284      __bormm_pfn_ReallocMem
 0003:00002288      __bormm_pfn_HeapAddRef
 0003:0000228C      __bormm_pfn_HeapRelease
 0003:00002294      b632_2
 0003:000026A4      __DestructorCountPtr
 0003:000026A4      b636_2
 0003:000026AC      __HandlerPtr
 0003:000026AC      b642_2
 0003:000026B0      __UserHandlerPtr
 0003:000026B4      b832_1
 0003:000026B4      __pidtab
 0003:0000277C      __handles
 0003:00002844      b908_2
 0003:00002844      __doserrno
 0003:00002848      b914_1
 0003:0000284C      b932_2
 0003:0000284C      __tmpnum
 0003:0000285C      __mbctype
 0003:0000285C      b1538_2
 0003:00002960      __mbcsCodePage
 0003:00002964      b1674_2
 0003:00002A64      b1690_2
 0003:00002A80      __ostype
 0003:00002A80      b1702_2
 0003:00002A84      __argv
 0003:00002A84      b1783_2
 0003:00002A90      b1785_2
 0003:00002A94      b1787_2
 0003:00002A98      __environ
 0003:00002A98      b1859_2
 0003:00002AA0      __envsize
 0003:00002AA4      __env_lock
 0003:00002AA8      __C0argc
 0003:00002AA8      b1881_1
 0003:00002AAC      __C0argv
 0003:00002AB0      __C0environ
 0003:00002AB4      __oscmd
 0003:00002AB8      __osenv
 0003:00002ABC      __argc
 0003:00002AC0      __dll_table
 0003:00002AC8      __ExcRegPtr
 0003:00002ACC      __wosenv
 0003:00002AD0      __woscmd
 0003:00002AD4      __wC0argv
 0003:00002AD8      __wC0environ
 0003:00002ADC      __exe_table
 0003:00002AE4      __stkbase
 0003:00002AE8      b1977_2
 0003:00002AEC      ___pCPPdebugHook
 0004:00000000      ___xxInfo
 0004:00000000      t636_3
