
 Start         Length     Name                   Class
 0001:00401000 0000224C0H _TEXT                  CODE
 0002:00424000 000006F98H _DATA                  DATA
 0003:0042AF98 000002AB4H _BSS                   BSS
 0004:00000000 00000009CH _TLS                   TLS

  Address         Publics by Name

 0001:00000140      Sysinit::__linkproc__ __fastcall GetTls()
 0002:00005F10      _CLOCALE
 0002:00005E00      _CMonetary
 0002:00005E34      _CNumeric
 0002:00005E4C      _CTimeDate
 0001:00021000      _CatchCleanup()
 0001:00017DB0      _InitTermAndUnexPtrs()
 0001:00020E59      _ReThrowException(unsigned int, unsigned char *)
 0001:00020E24      _ThrowExceptionLDTC(void *, void *, void *, void *, unsigned int, unsigned int, unsigned int, unsigned char *, void *)
 0003:00002A64      __C0argc
 0003:00002A68      __C0argv
 0003:00002A6C      __C0environ
 0001:00022322      __CurrExcContext
 0003:00002668      __DestructorCountPtr
 0001:0001FFEA      __DoLongJump__
 0001:0001F560      __ErrorExit
 0001:0001F434      __ErrorMessage
 0001:0001F374      __ErrorMessageHelper
 0003:00002A84      __ExcRegPtr
 0001:00017F28      __ExceptInit
 0002:00004CCC      __ExceptVarsSize
 0001:00017633      __ExceptionHandler
 0001:00017625      __ExitExceptBlock
 0001:00000059      __GetExceptDLLinfo
 0001:00017F74      __GetExceptDLLinfoInternal
 0001:00020EC4      __Global_unwind
 0003:00002670      __HandlerPtr
 0001:00018110      __InitDefaultHander
 0001:000175EC      __InitExceptBlockLDTC
 0001:00021530      __Local_unwind
 0002:00000134      __PackageInfoTable
 0001:00021543      __Return_unwind
 0001:00018124      __SetExceptionHandler
 0001:000180C4      __SetUserHandler
 0002:00000123      __TLS_index
 0002:00000127      __TLS_index4
 0001:00018139      __UnsetExceptionHandler
 0001:00018165      __UnwindException
 0003:00002674      __UserHandlerPtr
 0002:00000130      ___CPPdebugHook
 0002:00000130      ___CPPdebugHook_segment
 0002:00004C30      ___CPPexceptionList
 0001:000164B0      ___CRTL_MEM_CheckBorMem
 0001:00016434      ___CRTL_MEM_GetBorMemPtrs
 0001:000164EC      ___CRTL_MEM_Revector
 0001:000165A4      ___CRTL_MEM_UseBorMM
 0001:00020784      ___CRTL_TLS_Alloc
 0001:000207C8      ___CRTL_TLS_ExitThread
 0001:0002078C      ___CRTL_TLS_Free
 0001:000207D0      ___CRTL_TLS_GetInfo
 0001:0002079C      ___CRTL_TLS_GetValue
 0001:000207C0      ___CRTL_TLS_InitThread
 0001:000207AC      ___CRTL_TLS_SetValue
 0001:0001720C      ___CRTL_VCLLIB_Linkage
 0001:00017208      ___CRTL_VCL_Init
 0001:00018D98      ___DOSerror
 0001:00017F9C      ___DefHandler
 0001:0001F550      ___ErrorMessage
 0002:00004C4C      ___ExceptStaticXbuff
 0001:00018D54      ___IOerror
 0001:000207FF      ___JumpToCatch__
 0001:00018DB8      ___NTerror
 0001:00000140      ___System__GetTls
 0001:000215A4      ____ExceptionHandler
 0001:00006E4C      ___add__
 0002:000048CC      ___allocated
 0001:00017E7C      ___call_terminate
 0001:00017EF0      ___call_unexpected
 0002:0000670C      ___debuggerDisableTerminateCallback
 0001:00018172      ___doGlobalUnwind
 0001:00018190      ___eof
 0002:00004C34      ___exceptFlags
 0002:00004C48      ___exceptMemAllocVars
 0002:00004C44      ___exceptStaticBuffP
 0001:00018998      ___fputn
 0002:00006320      ___ieee_64_n_inf
 0002:00006330      ___ieee_64_n_nanq
 0002:00006340      ___ieee_64_n_nans
 0002:00006350      ___ieee_64_n_zero
 0002:00006318      ___ieee_64_p_inf
 0002:00006328      ___ieee_64_p_nanq
 0002:00006338      ___ieee_64_p_nans
 0002:00006348      ___ieee_64_p_zero
 0001:0001D550      ___int64toa
 0001:00006EC3      ___ip4__
 0001:00006C54      ___ip__
 0002:00000115      ___isDLL
 0002:000000DC      ___isGUI
 0002:00000114      ___isVCLPackage
 0001:00018218      ___isatty
 0001:00018248      ___isatty_osfhandle
 0001:0001AC1C      ___isctype
 0001:0001AC60      ___iswctype
 0001:000070AB      ___lc4__
 0001:0001D67C      ___ldtrunc
 0002:00005F3C      ___locale
 0002:00005CEC      ___localeLock
 0001:0001D804      ___longtoa
 0001:00018260      ___lseek
 0001:0000725A      ___ma4__
 0001:0001CE30      ___matherr
 0002:00005CE8      ___mb_cur_max
 0001:00006D54      ___mltadd__
 0001:0001D21E      ___nextreal
 0001:00016F74      ___org__expand
 0001:00018E74      ___org__fgetc
 0001:000185DC      ___org__fputc
 0001:0001D90C      ___org__matherr
 0001:0001D938      ___org__matherrl
 0001:000171EC      ___org__msize
 0001:00018644      ___org__read
 0001:000185FC      ___org__rtl_read
 0001:00018660      ___org__rtl_write
 0001:000186A8      ___org__write
 0001:0001D068      ___org_atan2
 0001:0001D184      ___org_atoi
 0001:0001D11C      ___org_atol
 0001:000162B4      ___org_calloc
 0001:0001D1A8      ___org_cos
 0001:000162E0      ___org_delete
 0001:000162F0      ___org_deletea
 0001:0001D260      ___org_exp
 0001:00018744      ___org_fflush
 0001:00018E8C      ___org_fgetc
 0001:000187C4      ___org_fgets
 0001:00018974      ___org_fprintf
 0001:00018F74      ___org_fputc
 0001:000164C4      ___org_free
 0001:0001D488      ___org_frexp
 0001:00018A74      ___org_fscanf
 0001:00018DCC      ___org_isatty
 0001:0001D894      ___org_itoa
 0001:0001D604      ___org_ldexp
 0001:0001D794      ___org_log
 0001:0001CE28      ___org_ltoa
 0001:000164B4      ___org_malloc
 0001:0001C758      ___org_mblen
 0001:0001C91C      ___org_mbstowcs
 0001:0001C7D4      ___org_mbtowc
 0001:00017210      ___org_memchr
 0001:000174A0      ___org_memcmp
 0001:00017230      ___org_memcpy
 0001:00017254      ___org_memmove
 0001:000172A0      ___org_memset
 0001:00019084      ___org_printf
 0001:0001F810      ___org_qsort
 0001:00020418      ___org_raise
 0001:000164D4      ___org_realloc
 0001:0001EA88      ___org_sin
 0001:0001EAC8      ___org_sqrt
 0001:00019B38      ___org_sscanf
 0001:00017344      ___org_strcat
 0001:00017380      ___org_strchr
 0001:0001750C      ___org_strdup
 0001:000173D4      ___org_strlen
 0001:00017430      ___org_strncat
 0001:00017540      ___org_strstr
 0001:0001D8C4      ___org_ultoa
 0001:00019C98      ___org_ungetc
 0001:00019B5C      ___org_vsscanf
 0001:0001CA84      ___org_wcstombs
 0001:0001C8A8      ___org_wctomb
 0003:00002AA8      ___pCPPdebugHook
 0002:00006564      ___pCallAtExitProcs
 0001:00020A69      ___raiseDebuggerException
 0001:00018344      ___read
 0001:0001D218      ___realcvt
 0001:000198E0      ___scantoint64
 0001:00006E24      ___smlt__
 0001:00006E7B      ___sub__
 0002:00004BF4      ___terminatePTR
 0002:00004C40      ___throwExceptionName
 0002:00004C38      ___throwFileName
 0002:00004C3C      ___throwLineNumber
 0002:00004BF8      ___unexpectdPTR
 0002:00000122      ___useDynamicTLS
 0001:0001D878      ___utoa
 0001:00019D98      ___vprinter
 0001:00018474      ___write
 0001:0001EB04      ___xcvt
 0001:0001EDD8      ___xcvtw
 0004:00000000      ___xxInfo
 0002:000048D0      ___xxPersonality
 0001:00011889      ___zadd__
 0001:000115B8      ___zconj__
 0001:00006EAA      ___zero__
 0001:000115E4      ___zip__
 0001:00011808      ___zmlt__
 0001:000116F0      ___zmltadd__
 0001:000118DD      ___zsub__
 0001:00011931      ___zzero__
 0001:0001F83C      __abort
 0001:00000000      __acrtused
 0001:0001BC98      __addCategoryName
 0001:00017D34      __adjustClassAdr(void *, tpid *, tpid *)
 0001:0001BE38      __allocAndGetValue
 0001:000186C4      __allocbuf
 0003:00002A78      __argc
 0003:00002A40      __argv
 0002:0000662C      __argv0
 0001:0001F924      __argv_default_expand
 0002:00006624      __argv_expand_ptr
 0001:0001F2C4      __assert
 0003:00002240      __bormm_pfn_FreeMem
 0003:00002244      __bormm_pfn_GetMem
 0003:0000224C      __bormm_pfn_HeapAddRef
 0003:00002250      __bormm_pfn_HeapRelease
 0003:00002248      __bormm_pfn_ReallocMem
 0001:0001F8F8      __c_exit
 0001:0001F8E8      __cexit
 0002:00004D28      __cfinfo_get
 0002:00005958      __chartype
 0002:00004CE0      __chtbl__ __call_terminate()
 0002:00004BFC      __chtbl__ std::terminate()
 0001:0001B6CC      __cleanCategories
 0001:0001B24C      __cleanLocale
 0001:00020574      __cleanup
 0001:0001D194      __clear87
 0002:000065D8      __cmdline_escapes
 0001:0001D1E8      __control87
 0001:00020498      __create_shmem
 0001:0001DD4C      __cvt_init
 0001:0001E080      __cvt_initw
 0002:0000628C      __default87
 0003:00002A7C      __dll_table
 0002:000052B4      __dosErrorToSV
 0003:00002808      __doserrno
 0001:00018AD8      __dup_handle
 0002:00004D00      __ectbl__ __call_terminate()
 0002:00004C1C      __ectbl__ std::terminate()
 0003:00002A60      __env_lock
 0003:00002A54      __environ
 0003:00002A5C      __envsize
 0003:00002A98      __exe_table
 0001:0001F8D0      __exit
 0001:000180FC      __exit_except
 0001:00019C3C      __exit_streams
 0001:0001F9FC      __exitargv
 0002:00006578      __exitargv_ptr
 0002:00006568      __exitbuf
 0002:0000656C      __exitfopen
 0002:00006570      __exitopen
 0001:00016F74      __expand
 0001:00020024      __expandblock
 0001:0001D2CC      __f87_ArcTan
 0001:0001D339      __f87_Exp
 0001:0001D331      __f87_Exp10
 0001:0001D32C      __f87_Exp2
 0001:0001D404      __f87_Log
 0001:0001D400      __f87_Log10
 0001:0001D3FC      __f87_Log2
 0001:00018E74      __fgetc
 0002:00004D2C      __fileinfo
 0002:000048AC      __firstHeap
 0002:0000635C      __floatconvert
 0001:000185A4      __flushall
 0001:000188F4      __flushout
 0002:000052AC      __fmode
 0002:000052B0      __fmodeptr
 0001:0001D470      __fpreset
 0001:000185DC      __fputc
 0002:000048B8      __freeStart
 0001:00018B40      __free_handle
 0001:00016594      __free_heaps
 0001:0001D4C0      __ftol
 0001:0001D4E8      __fuildq
 0001:0001D518      __fuistq
 0001:0001D53C      __fxam
 0001:00000066      __getHInstance
 0001:0001B2B8      __getLocale
 0001:0001A9C0      __getLocaleNumericInfo
 0001:0001BE94      __getShortValue
 0001:00018A98      __get_handle
 0001:0001F1F0      __getmbcp
 0002:0000012B      __hInstance
 0001:0001FC38      __handle_exitargv
 0001:0001FAE0      __handle_setargv
 0001:0001FE5C      __handle_wexitargv
 0001:0001FCC8      __handle_wsetargv
 0003:00002740      __handles
 0002:00004874      __heap_redirector
 0002:000062E0      __huge_dble
 0002:000062DC      __huge_flt
 0002:000062E8      __huge_ldble
 0001:00004294      __in_prod
 0002:00006308      __indefinite
 0001:0001B248      __initLocale
 0001:0001F1F8      __initMBCSTable
 0001:000180E4      __init_except
 0001:000204A0      __init_exit_proc
 0001:00018BF8      __init_handles
 0001:0001F94C      __init_setargv_handlers
 0001:00019B80      __init_streams
 0001:0001F908      __init_wild_handlers
 0001:00018960      __initfileinfo
 0001:00018950      __initfmode
 0001:0001D968      __initmatherr
 0001:00016B8C      __internal_free
 0001:00016F14      __internal_free_heaps
 0001:00016CFC      __internal_malloc
 0001:00017154      __internal_realloc
 0001:00017C24      __isCompatTypeID(tpid *, tpid *, int, tpid * *)
 0001:0000005E      __isDLL
 0001:00017B48      __isSameTypeID(tpid *, tpid *)
 0002:00006704      __isWindows
 0001:0001F208      __ismbcspace
 0002:00006478      __kalpha
 0002:0000647A      __kpunct
 0002:000048B0      __lastHeap
 0002:000048B4      __linktable
 0001:0001CC4B      __lldiv
 0001:0001CD0C      __llmod
 0001:0001CC28      __llmul
 0001:0001C648      __llocaleconv
 0001:0001CDD4      __llshl
 0001:0001CDF0      __llshr
 0001:0001CCC3      __lludiv
 0001:0001CD86      __llumod
 0001:0001CE0C      __llushr
 0002:00005B5C      __localeconvention
 0001:0001B230      __lockLocale
 0002:00005BE8      __lower
 0001:0001DA1C      __lrand
 0001:0001C6E0      __lstrlwr
 0001:0001D8E4      __ltoa
 0001:0001C704      __ltolower
 0001:00001B58      __m_copy
 0001:0001D90C      __matherr
 0001:0001D938      __matherrl
 0002:00006384      __mathwhy
 0002:000062F6      __max_dble
 0002:000062F2      __max_flt
 0002:000062FE      __max_ldble
 0003:00002914      __mbcsCodePage
 0003:00002810      __mbctype
 0001:0001F224      __mbsrchr
 0002:00006510      __messagefile
 0002:0000650C      __messagefunc
 0001:000171EC      __msize
 0002:000061C0      __nextrealptr
 0002:00006228      __nextrealwptr
 0002:000051E0      __nfile
 0002:0000489C      __nv_heap_size
 0002:000051E4      __openfd
 0003:00002A70      __oscmd
 0003:00002A74      __osenv
 0003:00002A34      __ostype
 0001:00016EFC      __phys_avail
 0003:00002678      __pidtab
 0002:0000637C      __pmatherr
 0002:00006380      __pmatherrl
 0001:0001CEE0      __pow10
 0001:0001D980      __qdiv10
 0001:0001D9A8      __qmul10
 0001:00018644      __read
 0002:000061BC      __realcvtptr
 0002:00006224      __realcvtwptr
 0001:0001E098      __round
 0002:000048C4      __rover
 0001:000185FC      __rtl_read
 0001:00018660      __rtl_write
 0001:0001E590      __scan_init
 0001:0001EA70      __scan_initw
 0001:000190A8      __scanner
 0001:0001D22A      __scanrslt
 0002:000061C8      __scanrsltptr
 0001:0001D224      __scantod
 0002:000061C4      __scantodptr
 0002:00006230      __scanwrsltptr
 0002:0000622C      __scanwtodptr
 0001:0001BEF0      __setCType
 0001:0001C63C      __setCollate
 0001:0001AD68      __setLocale32A
 0001:0001ACB8      __setLocale32W
 0001:0001BA78      __setLocaleFromString
 0001:0001BFD8      __setMonetary
 0001:0001B510      __setNewCategories
 0001:0001C5B4      __setNumeric
 0001:0001C158      __setTime
 0001:0001F974      __setargv
 0002:00006584      __setargv__
 0002:00006574      __setargv_ptr
 0002:00006650      __setenvp__
 0001:00018098      __setexc
 0001:0001F0CC      __setmbcp
 0002:000048A0      __smalloc_threshold
 0001:000205E0      __startup
 0003:00002AA0      __stkbase
 0002:00004D14      __stkchk
 0002:00004D30      __streams
 0002:000053E0      __sys_errlist
 0002:000054A4      __sys_nerr
 0001:00020488      __terminate
 0002:0000630C      __tiny_ldble
 0002:00006358      __turboFloat
 0001:00017B10      __typeIDname(tpid *)
 0001:0001B23C      __unlockLocale
 0001:000180B4      __unsetexc
 0001:000180D8      __unsetuserhandler
 0001:00001C02      __v_copy
 0001:00004748      __v_map
 0001:00008800      __v_norm1
 0001:0000890D      __v_norm2
 0001:00008A0D      __v_norm_inf
 0002:000048A4      __virt_chunk_free
 0002:000048A8      __virt_chunk_free2
 0002:00004894      __virt_chunk_size
 0002:00004898      __virt_chunk_size2
 0002:00004890      __virt_heap_size
 0003:00002A90      __wC0argv
 0003:00002A94      __wC0environ
 0001:0001F938      __wargv_default_expand
 0002:00006628      __wargv_expand_ptr
 0002:00006580      __wexitargv_ptr
 0001:0001A6FC      __win32DateTimeToPOSIX
 0001:0001732C      __wmemset
 0003:00002A8C      __woscmd
 0003:00002A88      __wosenv
 0001:000186A8      __write
 0002:0000657C      __wsetargv_ptr
 0001:0001A6D4      __xfflush
 0001:00013420      __zin_prod
 0001:0001194C      __zm_copy
 0001:000119F6      __zv_copy
 0001:0001394C      __zv_map
 0001:00015730      __zv_norm1
 0001:00015860      __zv_norm2
 0001:000159C0      __zv_norm_inf
 0001:0001F850      _abort
 0001:0001D068      _atan2
 0001:0001D184      _atoi
 0001:0001D11C      _atol
 0001:00009204      _band2mat
 0001:00009D7C      _bdLDLfactor
 0001:00009F54      _bdLDLsolve
 0001:00009925      _bdLUfactor
 0001:00009B8A      _bdLUsolve
 0001:000090A3      _bd_copy
 0001:00008DD0      _bd_free
 0001:00008D00      _bd_get
 0001:0000A107      _bd_mv_mlt
 0001:00008E30      _bd_resize
 0001:00009451      _bd_transp
 0001:00003023      _bfin_vec
 0001:000079E7      _biv_finput
 0001:0000D343      _bkp_bump_col
 0001:0000D3DD      _bkp_interchange
 0001:00002A00      _bm_finput
 0001:00002D1E      _bpx_finput
 0001:00010BFB      _bump_col
 0001:0001221D      _bzm_finput
 0001:00012579      _bzv_finput
 0001:000162B4      _calloc
 0001:00002701      _catch_FPE
 0001:00010972      _chase_col
 0001:00010A9F      _chase_past
 0001:0000DF24      _chk_col_access
 0001:0001D1A8      _cos
 0001:00002280      _count_errs
 0001:000088FF      _cube
 0001:0000223C      _err_is_list_attached
 0001:00002100      _err_list_attach
 0001:000021ED      _err_list_free
 0002:00006508      _errno
 0001:00002293      _ev_err
 0001:0001F8B8      _exit
 0001:0001D260      _exp
 0001:0001D444      _fabs
 0001:00018744      _fflush
 0001:00018E8C      _fgetc
 0001:000187C4      _fgets
 0001:0001D454      _floor
 0001:000002B4      _foo_1_free
 0001:00000150      _foo_1_get
 0001:00000305      _foo_2_free
 0001:00000206      _foo_2_get
 0002:00000150      _foo_free_func
 0002:00000144      _foo_type_name
 0001:00018974      _fprintf
 0001:00018F74      _fputc
 0001:000164C4      _free
 0001:0001D488      _frexp
 0001:00018A74      _fscanf
 0001:0001D4C0      _ftol()
 0001:000003B7      _gen_non_symm
 0001:00002E92      _ifin_vec
 0001:0000785D      _iiv_finput
 0001:000027A9      _im_finput
 0001:00002B84      _ipx_finput
 0001:0001AA14      _isalnum
 0001:0001AA40      _isalpha
 0001:0001AA2C      _isascii
 0001:00018DCC      _isatty
 0001:0001AA58      _iscntrl
 0001:0001AA6C      _isdigit
 0001:0001AA80      _isgraph
 0001:0001AA98      _islower
 0001:0001AAAC      _isprint
 0001:0001AAC4      _ispunct
 0001:0001AAD8      _isspace
 0001:0001AAEC      _isupper
 0001:0001AB18      _iswalnum
 0001:0001AB44      _iswalpha
 0001:0001AB30      _iswascii
 0001:0001AB5C      _iswcntrl
 0001:0001AB70      _iswdigit
 0001:0001AB84      _iswgraph
 0001:0001AB9C      _iswlower
 0001:0001ABB0      _iswprint
 0001:0001ABC8      _iswpunct
 0001:0001ABDC      _iswspace
 0001:0001ABF0      _iswupper
 0001:0001AC04      _iswxdigit
 0001:0001AB00      _isxdigit
 0001:00011163      _iter_copy
 0001:00011090      _iter_copy2
 0001:00010F92      _iter_dump
 0001:00010E5E      _iter_free
 0001:0001137F      _iter_gen_nonsym
 0001:000114A7      _iter_gen_nonsym_posdef
 0001:0001123F      _iter_gen_sym
 0001:00010D72      _iter_get
 0001:00010ECF      _iter_resize
 0001:00010CF0      _iter_std_info
 0001:00010D38      _iter_std_stop_crit
 0001:0001D894      _itoa
 0001:00007639      _iv_add
 0001:00007535      _iv_copy
 0001:00007ACD      _iv_dump
 0001:00007829      _iv_finput
 0001:0000777F      _iv_foutput
 0001:000073C5      _iv_free
 0001:000041D2      _iv_free_vars
 0001:000072FC      _iv_get
 0001:00004054      _iv_get_vars
 0001:0000DCF3      _iv_min
 0001:00007589      _iv_move
 0001:0000745A      _iv_resize
 0001:00004105      _iv_resize_vars
 0001:00007B8F      _iv_sort
 0001:000076DC      _iv_sub
 0001:00006831      _iv_zero
 0001:00011F9E      _izm_finput
 0001:000123C1      _izv_finput
 0001:0001D604      _ldexp
 0001:0001D794      _log
 0001:0001FF6E      _longjmp
 0001:0001CE28      _ltoa
 0001:00005084      _m_add
 0001:0000339F      _m_dump
 0001:00002775      _m_finput
 0001:0000311F      _m_foutput
 0001:0000397A      _m_free
 0001:00004252      _m_free_vars
 0001:00003660      _m_get
 0001:0000407E      _m_get_vars
 0001:000068C7      _m_ident
 0001:0000521E      _m_mlt
 0001:00001CDB      _m_move
 0001:00008B29      _m_norm1
 0001:00008C6F      _m_norm_frob
 0001:00008BCC      _m_norm_inf
 0001:00006BB7      _m_ones
 0001:00006B28      _m_rand
 0001:00003B4F      _m_resize
 0001:00004133      _m_resize_vars
 0001:00005151      _m_sub
 0001:000057FF      _m_transp
 0001:0000686C      _m_zero
 0001:00000841      _main
 0001:000164B4      _malloc
 0001:0000930B      _mat2band
 0001:0001C758      _mblen
 0001:0001C91C      _mbstowcs
 0001:0001C7D4      _mbtowc
 0001:00007D7C      _mem_attach_list
 0001:0000813C      _mem_bytes_list
 0002:00002480      _mem_connect
 0001:00007EA5      _mem_dump_list
 0001:00007E12      _mem_free_vars
 0001:00007F87      _mem_info_bytes
 0001:00008034      _mem_info_file
 0001:00007F7D      _mem_info_is_on
 0001:00007FDD      _mem_info_numvar
 0001:00007F6A      _mem_info_on
 0001:00007E5C      _mem_is_list_attached
 0001:00008232      _mem_numvar_list
 0001:000086D2      _mem_stat_dump
 0001:0000856B      _mem_stat_free_list
 0001:00008538      _mem_stat_mark
 0001:0000846B      _mem_stat_reg_list
 0001:000087CE      _mem_stat_reg_vars
 0001:000087C4      _mem_stat_show_mark
 0001:00017210      _memchr
 0001:000174A0      _memcmp
 0001:00017230      _memcpy
 0001:00017254      _memmove
 0001:000172A0      _memset
 0001:0000534E      _mmtr_mlt
 0001:00006961      _mrand
 0001:000069F0      _mrandlist
 0001:00005B12      _ms_mltadd
 0001:00005459      _mtrm_mlt
 0001:00005589      _mv_mlt
 0001:00005C96      _mv_mltadd
 0001:00001ED8      _mv_move
 0001:00014F28      _mz_mltadd
 0001:000108FF      _patch_col
 0001:00019084      _printf
 0001:0000658E      _px_cols
 0001:00001C79      _px_copy
 0001:000034EF      _px_dump
 0001:00002B50      _px_finput
 0001:00003235      _px_foutput
 0001:00003A2B      _px_free
 0001:00004212      _px_free_vars
 0001:000037C8      _px_get
 0001:000040AD      _px_get_vars
 0001:00006926      _px_ident
 0001:00005FA4      _px_inv
 0001:00006035      _px_mlt
 0001:00000353      _px_rand
 0001:00003E3D      _px_resize
 0001:00004164      _px_resize_vars
 0001:000066C5      _px_rows
 0001:00006525      _px_sign
 0001:00006438      _px_transp
 0001:00006127      _px_vec
 0001:00013F64      _px_zvec
 0001:00006316      _pxinv_vec
 0001:0001417F      _pxinv_zvec
 0001:0001F810      _qsort
 0001:00020418      _raise
 0001:0001DA00      _rand
 0001:000164D4      _realloc
 0003:00000018      _restart
 0001:00010720      _scan_to
 0001:0000226D      _set_err_flag
 0001:00003100      _setformat
 0001:0001FF38      _setjmp
 0001:0001266F      _setzformat
 0001:000203B8      _signal
 0001:0001EA88      _sin
 0001:00002718      _skipjunk
 0001:00005665      _sm_mlt
 0001:00006A93      _smrand
 0001:0000DFF9      _spBKPfactor
 0001:00010255      _spBKPsolve
 0001:0000AED6      _sp_add
 0001:0000ACDF      _sp_col_access
 0001:0000BA6C      _sp_compact
 0001:0000AA76      _sp_copy
 0001:0000B58B      _sp_copy2
 0001:0000ADBF      _sp_diag_access
 0001:0000A920      _sp_free
 0001:0000BBBF      _sp_free_vars
 0001:0000A717      _sp_get
 0001:0000A288      _sp_get_val
 0001:0000BB5C      _sp_get_vars
 0001:0000AE1D      _sp_m2dense
 0001:0000B28C      _sp_mltadd
 0001:0000A4E8      _sp_mv_mlt
 0001:0000B7C3      _sp_resize
 0001:0000BB8E      _sp_resize_vars
 0001:0000A318      _sp_set_val
 0001:0000B473      _sp_smlt
 0001:0000B0B1      _sp_sub
 0001:0000A5F7      _sp_vm_mlt
 0001:0000B51C      _sp_zero
 0001:0000C679      _sprow_add
 0001:0000C2E9      _sprow_copy
 0001:0000BC00      _sprow_dump
 0001:0000CBB6      _sprow_foutput
 0001:0000C116      _sprow_free
 0001:0000BD2F      _sprow_get
 0001:0000BCB9      _sprow_idx
 0001:0000C18B      _sprow_merge
 0001:0000C45A      _sprow_mltadd
 0001:0000BFD6      _sprow_resize
 0001:0000CC1C      _sprow_set_val
 0001:0000CAB3      _sprow_smlt
 0001:0000C898      _sprow_sub
 0001:0000BE0C      _sprow_xpd
 0001:0001EAC8      _sqrt
 0001:000088F4      _square
 0001:0001D9D8      _srand
 0001:00019B38      _sscanf
 0001:000004DF      _stat_test1
 0001:0000061C      _stat_test2
 0001:000006B3      _stat_test3
 0001:00000796      _stat_test4
 0001:00017344      _strcat
 0001:00017380      _strchr
 0001:0001750C      _strdup
 0001:000173D4      _strlen
 0001:00017430      _strncat
 0001:00017540      _strstr
 0001:0000431C      _sv_mlt
 0001:00005A22      _swap_cols
 0001:00005931      _swap_rows
 0001:0001D8C4      _ultoa
 0001:00019C98      _ungetc
 0001:0000CDAC      _unord_get_idx
 0001:0000CE02      _unord_get_val
 0001:000043B4      _v_add
 0001:00004ED7      _v_conv
 0001:00006C0E      _v_count
 0001:0000357B      _v_dump
 0001:00002E5E      _v_finput
 0001:000032CF      _v_foutput
 0001:00003ABD      _v_free
 0001:00004192      _v_free_vars
 0001:000038A4      _v_get
 0001:0000402A      _v_get_vars
 0001:000047D8      _v_lincomb
 0001:000048DF      _v_linlist
 0001:000046BB      _v_map
 0001:00004BDF      _v_max
 0001:00004B39      _v_min
 0001:00004437      _v_mltadd
 0001:00001E28      _v_move
 0001:00006B71      _v_ones
 0001:00004FA4      _v_pconv
 0001:00006AF0      _v_rand
 0001:00003F2F      _v_resize
 0001:000040D7      _v_resize_vars
 0001:00004A6D      _v_slash
 0001:00004C85      _v_sort
 0001:000049E7      _v_star
 0001:00004633      _v_sub
 0001:00004E87      _v_sum
 0001:000067FC      _v_zero
 0001:0001636C      _virt_alloc
 0001:00016394      _virt_commit
 0001:000163E0      _virt_decommit
 0001:000163F8      _virt_release
 0001:00016300      _virt_reserve
 0001:000056FB      _vm_mlt
 0001:00005E1A      _vm_mltadd
 0001:00001FD6      _vm_move
 0001:00019B5C      _vsscanf
 0001:000175AC      _wcscpy
 0001:00017594      _wcslen
 0001:0001CA84      _wcstombs
 0001:0001C8A8      _wctomb
 0001:00011E8C      _z_finput
 0001:0001268E      _z_foutput
 0001:00015D89      _zabs
 0001:00015E91      _zadd
 0001:00016280      _zconj
 0001:0001609A      _zdiv
 0001:000161C9      _zexp
 0001:00015470      _zget_col
 0001:00015519      _zget_row
 0001:00015F2E      _zinv
 0001:00016223      _zlog
 0001:000142F0      _zm_add
 0001:00014B29      _zm_adjoint
 0001:000128C1      _zm_dump
 0001:00011F6A      _zm_finput
 0001:000126CD      _zm_foutput
 0001:00012DC4      _zm_free
 0001:000133DD      _zm_free_vars
 0001:00012B8B      _zm_get
 0001:0001330F      _zm_get_vars
 0001:0001448A      _zm_mlt
 0001:00011A6D      _zm_move
 0001:00015B1C      _zm_norm1
 0001:00015C7C      _zm_norm_frob
 0001:00015BCC      _zm_norm_inf
 0001:000156E3      _zm_rand
 0001:00012F07      _zm_resize
 0001:0001336C      _zm_resize_vars
 0001:000143BD      _zm_sub
 0001:00012B45      _zm_zero
 0001:00015D2C      _zmake
 0001:00014702      _zmam_mlt
 0001:00015EEF      _zmlt
 0001:000145E6      _zmma_mlt
 0001:00014872      _zmv_mlt
 0001:000150D0      _zmv_mltadd
 0001:00011C64      _zmv_move
 0001:00015D61      _zneg
 0001:000155B3      _zset_col
 0001:00015660      _zset_row
 0001:0001495D      _zsm_mlt
 0001:000160F9      _zsqrt
 0001:00015EC0      _zsub
 0001:00014E20      _zswap_cols
 0001:00014D1C      _zswap_rows
 0001:00013584      _zv_add
 0001:00012A23      _zv_dump
 0001:0001238D      _zv_finput
 0001:000127E9      _zv_foutput
 0001:00012E75      _zv_free
 0001:0001339D      _zv_free_vars
 0001:00012CF1      _zv_get
 0001:000132E5      _zv_get_vars
 0001:000139EF      _zv_lincomb
 0001:00013B09      _zv_linlist
 0001:000138AC      _zv_map
 0001:000134C8      _zv_mlt
 0001:00013607      _zv_mltadd
 0001:00011BBA      _zv_move
 0001:000142B3      _zv_rand
 0001:000131EA      _zv_resize
 0001:0001333E      _zv_resize_vars
 0001:00013D60      _zv_slash
 0001:00013C4D      _zv_star
 0001:00013827      _zv_sub
 0001:00013EDC      _zv_sum
 0001:00012B10      _zv_zero
 0001:000149F9      _zvm_mlt
 0001:00015294      _zvm_mltadd
 0001:00011D62      _zvm_move
 0003:00000038      b11_2
 0003:00002810      b1538_2
 0003:00002918      b1674_2
 0003:00002A18      b1690_2
 0003:00002A34      b1702_2
 0003:00002A38      b1706_1
 0003:00002A40      b1783_2
 0003:00002A4C      b1785_2
 0003:00002A50      b1787_2
 0003:00002A54      b1859_2
 0003:00002A64      b1881_1
 0003:00002AA4      b1977_2
 0003:0000008C      b23_2
 0003:00000000      b2_2
 0003:00002240      b319_2
 0003:0000016C      b31_2
 0003:000001C0      b35_2
 0003:00000210      b37_2
 0003:00002258      b632_2
 0003:00002668      b636_2
 0003:00002670      b642_2
 0003:000021E0      b71_2
 0003:00002678      b832_1
 0003:00002808      b908_2
 0003:0000280C      b914_1
 0003:000021EC      b95_2
 0003:00000018      b9_2
 0001:00019B0C      c1000_0
 0001:00019B80      c1008_0
 0001:00019C3C      c1008_1
 0001:000142F0      c101_0
 0001:00019C98      c1020_0
 0001:00019CE8      c1036_0
 0001:00015730      c103_0
 0001:00015D2C      c105_0
 0001:0001A6D4      c1114_0
 0001:0001A6FC      c1120_0
 0001:0001A9C0      c1128_0
 0001:0001AA14      c1136_0
 0001:0001AB18      c1138_0
 0001:0001AC1C      c1140_0
 0001:0001AC60      c1142_0
 0001:0001ACB8      c1144_0
 0001:0001B248      c1144_2
 0001:0001B24C      c1144_3
 0001:0001BE38      c1148_0
 0001:0001C648      c1150_0
 0001:0001C6E0      c1168_0
 0001:0001C704      c1180_0
 0001:0001C758      c1188_0
 0001:00002718      c11_0
 0001:0001CC28      c1238_0
 0001:0001CE28      c1268_0
 0001:0001CE30      c1272_0
 0001:0001CEE0      c1278_0
 0001:0001D068      c1292_0
 0001:0001D11C      c1302_0
 0001:0001D194      c1314_0
 0001:0001D1A8      c1316_0
 0001:0001D1E8      c1328_0
 0001:0001D218      c1330_0
 0001:0001D230      c1334_0
 0001:0001D248      c1336_0
 0001:0001D260      c1344_0
 0001:0001D2CC      c1350_0
 0001:0001D32C      c1352_0
 0001:0001D3FC      c1354_0
 0001:0001D444      c1358_0
 0001:0001D454      c1368_0
 0001:0001D470      c1376_0
 0001:0001D488      c1378_0
 0001:0001D4C0      c1382_0
 0001:0001D4E8      c1384_0
 0001:0001D518      c1386_0
 0001:0001D53C      c1388_0
 0001:00003660      c13_0
 0001:0001D550      c1404_0
 0001:0001D604      c1410_0
 0001:0001D67C      c1414_0
 0001:0001D794      c1416_0
 0001:0001D804      c1424_0
 0001:0001D894      c1432_0
 0001:0001D90C      c1436_0
 0001:0001D938      c1438_0
 0001:0001D968      c1440_0
 0001:0001D980      c1462_0
 0001:0001D9A8      c1464_0
 0001:0001D9D8      c1466_0
 0001:0001D9F4      c1466_2
 0001:0001DA68      c1468_0
 0001:0001DD64      c1470_0
 0001:0001E098      c1476_0
 0001:0001E0C4      c1478_0
 0001:0001E5A8      c1480_0
 0001:0001EA88      c1482_0
 0001:0001EAC8      c1490_0
 0001:0001EB04      c1524_0
 0001:0001EDD8      c1526_0
 0001:0001F0CC      c1538_0
 0001:0001F1F8      c1538_3
 0001:0001F208      c1560_0
 0001:00004294      c15_0
 0001:0001F224      c1622_0
 0001:0001F27C      c1674_0
 0001:0001F324      c1690_0
 0001:0001F3DC      c1694_0
 0001:0001F578      c1702_0
 0001:0001F578      c1702_3
 0001:0001F604      c1706_0
 0001:0001F83C      c1721_0
 0001:0001F860      c1759_0
 0001:0001F908      c1767_0
 0001:0001F924      c1769_0
 0001:0001F938      c1771_0
 0001:0001F94C      c1777_0
 0001:0001F974      c1783_0
 0001:0001F974      c1783_3
 0001:0001F9FC      c1783_4
 0001:0001FAE0      c1785_0
 0001:0001FCC8      c1787_0
 0001:00005084      c17_0
 0001:0001FEF0      c1845_0
 0001:0001FEF0      c1845_2
 0001:0001FF28      c1845_3
 0001:0001FF38      c1849_0
 0001:0001FFF0      c1859_0
 0001:00020170      c1859_3
 0001:0001FFF0      c1859_4
 0001:00020190      c1863_0
 0001:00020488      c1883_0
 0001:000205E0      c1885_0
 0001:00020784      c1899_0
 0001:000207D4      c1977_0
 0001:000207D4      c1977_3
 0001:00005FA4      c19_0
 0001:00000000      c1_0
 0001:000067FC      c23_0
 0001:00006C54      c27_0
 0001:000162B4      c287_0
 0001:000162E0      c289_0
 0001:000162F0      c291_0
 0001:00000150      c2_0
 0001:00016300      c317_0
 0001:00016414      c319_0
 0001:000072FC      c31_0
 0001:000164B4      c325_0
 0001:000164D4      c327_0
 0001:000164EC      c329_0
 0001:00016588      c329_2
 0001:000165A4      c331_0
 0001:000165A8      c335_0
 0001:00016F74      c355_0
 0001:00017208      c357_0
 0001:00007D7C      c35_0
 0001:0001720C      c361_0
 0001:000082FC      c37_0
 0001:00017210      c500_0
 0001:00017230      c504_0
 0001:00017254      c508_0
 0001:000172A0      c510_0
 0001:0001732C      c512_0
 0001:00017344      c526_0
 0001:00017380      c528_0
 0001:000173D4      c534_0
 0001:00017430      c536_0
 0001:000174A0      c552_0
 0001:0001750C      c558_0
 0001:00008800      c55_0
 0001:00017540      c580_0
 0001:00017594      c586_0
 0001:000175AC      c588_0
 0001:000175EC      c628_0
 0001:0001765C      c632_0
 0001:000177B3      c632_3
 0001:00017E50      c636_0
 0001:00017E50      c636_4
 0001:00017F9C      c638_0
 0001:00017FA8      c642_0
 0001:000180E4      c642_3
 0001:000180FC      c642_4
 0001:00018124      c646_0
 0001:0001816C      c648_0
 0001:00018190      c660_0
 0001:00018218      c664_0
 0001:00018260      c666_0
 0001:000182D8      c670_0
 0001:00018474      c676_0
 0001:00018590      c678_0
 0001:000185A4      c696_0
 0001:000185DC      c698_0
 0001:00008D00      c69_0
 0001:0000A288      c71_0
 0001:000185FC      c720_0
 0001:0000BC00      c73_0
 0001:00018660      c752_0
 0001:000186C4      c756_0
 0001:00001B58      c7_0
 0001:00018744      c818_0
 0001:0000CDAC      c81_0
 0001:000187C4      c824_0
 0001:00010720      c83_0
 0001:000188F4      c840_0
 0001:00018950      c844_0
 0001:00018974      c852_0
 0001:00018998      c858_0
 0001:00010CF0      c85_0
 0001:00018A74      c872_0
 0001:00018A98      c906_0
 0001:00018D54      c908_0
 0001:00018DCC      c912_0
 0001:00018DD4      c914_0
 0001:000115B8      c91_0
 0001:00018F74      c922_0
 0001:0001194C      c93_0
 0001:00019084      c942_0
 0001:00011E8C      c95_0
 0001:000190A8      c968_0
 0001:000198E0      c976_0
 0001:00012B10      c97_0
 0001:00013420      c99_0
 0001:00002100      c9_0
 0002:00004344      d101_1
 0002:000058E0      d1036_1
 0002:000046B8      d103_1
 0002:00004794      d105_1
 0002:00005958      d1116_0
 0002:00005B5C      d1118_1
 0002:00005B98      d1120_1
 0002:00005BE8      d1122_0
 0002:00005CE8      d1144_1
 0002:00005E00      d1146_0
 0002:00006060      d1148_1
 0002:00001534      d11_1
 0002:000060C8      d1272_1
 0002:000060D8      d1278_1
 0002:00006198      d1292_1
 0002:000061B0      d1316_1
 0002:000061BC      d1334_1
 0002:00006224      d1336_1
 0002:0000628C      d1338_0
 0002:00006290      d1344_1
 0002:0000629C      d1350_1
 0002:000062B0      d1352_1
 0002:000062C4      d1354_1
 0002:000062DC      d1392_0
 0002:00001958      d13_1
 0002:00006358      d1402_0
 0002:00006360      d1410_1
 0002:00006370      d1416_1
 0002:0000637C      d1440_1
 0002:00006384      d1444_0
 0002:000063C8      d1466_1
 0002:000063D0      d1468_1
 0002:000063E4      d1470_1
 0002:0000640C      d1478_1
 0002:00006434      d1480_1
 0002:0000645C      d1482_1
 0002:00006468      d1490_1
 0002:00006478      d1538_1
 0002:00001AA4      d15_1
 0002:000064C0      d1674_1
 0002:000064E4      d1690_1
 0002:00006508      d1692_1
 0002:0000650C      d1694_1
 0002:0000651C      d1702_1
 0002:00006544      d1721_1
 0002:00006564      d1723_0
 0002:00006568      d1759_1
 0002:00006574      d1779_0
 0002:0000657C      d1781_0
 0002:00006584      d1783_1
 0002:000065D8      d1785_1
 0002:00006600      d1787_1
 0002:00001CEC      d17_1
 0002:00006624      d1841_0
 0002:00006628      d1843_0
 0002:0000662C      d1845_1
 0002:0000664C      d1849_1
 0002:00006650      d1859_1
 0002:000066A4      d1863_1
 0002:00006704      d1881_0
 0002:00006708      d1883_1
 0002:0000670C      d1977_1
 0002:00001F80      d19_1
 0002:00000098      d1_1
 0002:000020FC      d23_1
 0002:0000013C      d2_1
 0002:000047D4      d317_1
 0002:000047D8      d319_1
 0002:000021DC      d31_1
 0002:00004870      d329_1
 0002:00004890      d335_1
 0002:000023FC      d35_1
 0002:000027E4      d37_1
 0002:000029C8      d55_1
 0002:000048D0      d630_0
 0002:000048D4      d632_1
 0002:00004BF4      d634_1
 0002:00004C30      d636_1
 0002:00004D14      d642_1
 0002:00004D28      d678_1
 0002:00002A94      d69_1
 0002:00002C64      d71_1
 0002:00002FE4      d73_1
 0002:00004D2C      d758_0
 0002:00000D0C      d7_1
 0002:0000332C      d81_1
 0002:00004D30      d830_0
 0002:000051E0      d832_0
 0002:00003774      d83_1
 0002:000052AC      d842_0
 0002:000052B0      d844_1
 0002:000038A8      d85_1
 0002:000052B4      d908_1
 0002:00003B1C      d93_1
 0002:000053E0      d940_1
 0002:00003BF4      d95_1
 0002:0000585C      d968_1
 0002:00003F8C      d97_1
 0002:000040C0      d99_1
 0002:00000DE0      d9_1
 0001:00018187      invokeHnd()
 0001:0001816C      jump()
 0001:000162E0      operator delete(void *)
 0001:000162F0      operator delete[](void *)
 0001:00017DD8      std::terminate()
 0001:00017E28      std::unexpected()
 0004:00000000      t636_3

  Address         Publics by Value

 0001:00000000      c1_0
 0001:00000000      __acrtused
 0001:00000059      __GetExceptDLLinfo
 0001:0000005E      __isDLL
 0001:00000066      __getHInstance
 0001:00000140      ___System__GetTls
 0001:00000140      Sysinit::__linkproc__ __fastcall GetTls()
 0001:00000150      c2_0
 0001:00000150      _foo_1_get
 0001:00000206      _foo_2_get
 0001:000002B4      _foo_1_free
 0001:00000305      _foo_2_free
 0001:00000353      _px_rand
 0001:000003B7      _gen_non_symm
 0001:000004DF      _stat_test1
 0001:0000061C      _stat_test2
 0001:000006B3      _stat_test3
 0001:00000796      _stat_test4
 0001:00000841      _main
 0001:00001B58      __m_copy
 0001:00001B58      c7_0
 0001:00001C02      __v_copy
 0001:00001C79      _px_copy
 0001:00001CDB      _m_move
 0001:00001E28      _v_move
 0001:00001ED8      _mv_move
 0001:00001FD6      _vm_move
 0001:00002100      _err_list_attach
 0001:00002100      c9_0
 0001:000021ED      _err_list_free
 0001:0000223C      _err_is_list_attached
 0001:0000226D      _set_err_flag
 0001:00002280      _count_errs
 0001:00002293      _ev_err
 0001:00002701      _catch_FPE
 0001:00002718      _skipjunk
 0001:00002718      c11_0
 0001:00002775      _m_finput
 0001:000027A9      _im_finput
 0001:00002A00      _bm_finput
 0001:00002B50      _px_finput
 0001:00002B84      _ipx_finput
 0001:00002D1E      _bpx_finput
 0001:00002E5E      _v_finput
 0001:00002E92      _ifin_vec
 0001:00003023      _bfin_vec
 0001:00003100      _setformat
 0001:0000311F      _m_foutput
 0001:00003235      _px_foutput
 0001:000032CF      _v_foutput
 0001:0000339F      _m_dump
 0001:000034EF      _px_dump
 0001:0000357B      _v_dump
 0001:00003660      _m_get
 0001:00003660      c13_0
 0001:000037C8      _px_get
 0001:000038A4      _v_get
 0001:0000397A      _m_free
 0001:00003A2B      _px_free
 0001:00003ABD      _v_free
 0001:00003B4F      _m_resize
 0001:00003E3D      _px_resize
 0001:00003F2F      _v_resize
 0001:0000402A      _v_get_vars
 0001:00004054      _iv_get_vars
 0001:0000407E      _m_get_vars
 0001:000040AD      _px_get_vars
 0001:000040D7      _v_resize_vars
 0001:00004105      _iv_resize_vars
 0001:00004133      _m_resize_vars
 0001:00004164      _px_resize_vars
 0001:00004192      _v_free_vars
 0001:000041D2      _iv_free_vars
 0001:00004212      _px_free_vars
 0001:00004252      _m_free_vars
 0001:00004294      __in_prod
 0001:00004294      c15_0
 0001:0000431C      _sv_mlt
 0001:000043B4      _v_add
 0001:00004437      _v_mltadd
 0001:00004633      _v_sub
 0001:000046BB      _v_map
 0001:00004748      __v_map
 0001:000047D8      _v_lincomb
 0001:000048DF      _v_linlist
 0001:000049E7      _v_star
 0001:00004A6D      _v_slash
 0001:00004B39      _v_min
 0001:00004BDF      _v_max
 0001:00004C85      _v_sort
 0001:00004E87      _v_sum
 0001:00004ED7      _v_conv
 0001:00004FA4      _v_pconv
 0001:00005084      c17_0
 0001:00005084      _m_add
 0001:00005151      _m_sub
 0001:0000521E      _m_mlt
 0001:0000534E      _mmtr_mlt
 0001:00005459      _mtrm_mlt
 0001:00005589      _mv_mlt
 0001:00005665      _sm_mlt
 0001:000056FB      _vm_mlt
 0001:000057FF      _m_transp
 0001:00005931      _swap_rows
 0001:00005A22      _swap_cols
 0001:00005B12      _ms_mltadd
 0001:00005C96      _mv_mltadd
 0001:00005E1A      _vm_mltadd
 0001:00005FA4      c19_0
 0001:00005FA4      _px_inv
 0001:00006035      _px_mlt
 0001:00006127      _px_vec
 0001:00006316      _pxinv_vec
 0001:00006438      _px_transp
 0001:00006525      _px_sign
 0001:0000658E      _px_cols
 0001:000066C5      _px_rows
 0001:000067FC      _v_zero
 0001:000067FC      c23_0
 0001:00006831      _iv_zero
 0001:0000686C      _m_zero
 0001:000068C7      _m_ident
 0001:00006926      _px_ident
 0001:00006961      _mrand
 0001:000069F0      _mrandlist
 0001:00006A93      _smrand
 0001:00006AF0      _v_rand
 0001:00006B28      _m_rand
 0001:00006B71      _v_ones
 0001:00006BB7      _m_ones
 0001:00006C0E      _v_count
 0001:00006C54      ___ip__
 0001:00006C54      c27_0
 0001:00006D54      ___mltadd__
 0001:00006E24      ___smlt__
 0001:00006E4C      ___add__
 0001:00006E7B      ___sub__
 0001:00006EAA      ___zero__
 0001:00006EC3      ___ip4__
 0001:000070AB      ___lc4__
 0001:0000725A      ___ma4__
 0001:000072FC      _iv_get
 0001:000072FC      c31_0
 0001:000073C5      _iv_free
 0001:0000745A      _iv_resize
 0001:00007535      _iv_copy
 0001:00007589      _iv_move
 0001:00007639      _iv_add
 0001:000076DC      _iv_sub
 0001:0000777F      _iv_foutput
 0001:00007829      _iv_finput
 0001:0000785D      _iiv_finput
 0001:000079E7      _biv_finput
 0001:00007ACD      _iv_dump
 0001:00007B8F      _iv_sort
 0001:00007D7C      _mem_attach_list
 0001:00007D7C      c35_0
 0001:00007E12      _mem_free_vars
 0001:00007E5C      _mem_is_list_attached
 0001:00007EA5      _mem_dump_list
 0001:00007F6A      _mem_info_on
 0001:00007F7D      _mem_info_is_on
 0001:00007F87      _mem_info_bytes
 0001:00007FDD      _mem_info_numvar
 0001:00008034      _mem_info_file
 0001:0000813C      _mem_bytes_list
 0001:00008232      _mem_numvar_list
 0001:000082FC      c37_0
 0001:0000846B      _mem_stat_reg_list
 0001:00008538      _mem_stat_mark
 0001:0000856B      _mem_stat_free_list
 0001:000086D2      _mem_stat_dump
 0001:000087C4      _mem_stat_show_mark
 0001:000087CE      _mem_stat_reg_vars
 0001:00008800      c55_0
 0001:00008800      __v_norm1
 0001:000088F4      _square
 0001:000088FF      _cube
 0001:0000890D      __v_norm2
 0001:00008A0D      __v_norm_inf
 0001:00008B29      _m_norm1
 0001:00008BCC      _m_norm_inf
 0001:00008C6F      _m_norm_frob
 0001:00008D00      c69_0
 0001:00008D00      _bd_get
 0001:00008DD0      _bd_free
 0001:00008E30      _bd_resize
 0001:000090A3      _bd_copy
 0001:00009204      _band2mat
 0001:0000930B      _mat2band
 0001:00009451      _bd_transp
 0001:00009925      _bdLUfactor
 0001:00009B8A      _bdLUsolve
 0001:00009D7C      _bdLDLfactor
 0001:00009F54      _bdLDLsolve
 0001:0000A107      _bd_mv_mlt
 0001:0000A288      c71_0
 0001:0000A288      _sp_get_val
 0001:0000A318      _sp_set_val
 0001:0000A4E8      _sp_mv_mlt
 0001:0000A5F7      _sp_vm_mlt
 0001:0000A717      _sp_get
 0001:0000A920      _sp_free
 0001:0000AA76      _sp_copy
 0001:0000ACDF      _sp_col_access
 0001:0000ADBF      _sp_diag_access
 0001:0000AE1D      _sp_m2dense
 0001:0000AED6      _sp_add
 0001:0000B0B1      _sp_sub
 0001:0000B28C      _sp_mltadd
 0001:0000B473      _sp_smlt
 0001:0000B51C      _sp_zero
 0001:0000B58B      _sp_copy2
 0001:0000B7C3      _sp_resize
 0001:0000BA6C      _sp_compact
 0001:0000BB5C      _sp_get_vars
 0001:0000BB8E      _sp_resize_vars
 0001:0000BBBF      _sp_free_vars
 0001:0000BC00      _sprow_dump
 0001:0000BC00      c73_0
 0001:0000BCB9      _sprow_idx
 0001:0000BD2F      _sprow_get
 0001:0000BE0C      _sprow_xpd
 0001:0000BFD6      _sprow_resize
 0001:0000C116      _sprow_free
 0001:0000C18B      _sprow_merge
 0001:0000C2E9      _sprow_copy
 0001:0000C45A      _sprow_mltadd
 0001:0000C679      _sprow_add
 0001:0000C898      _sprow_sub
 0001:0000CAB3      _sprow_smlt
 0001:0000CBB6      _sprow_foutput
 0001:0000CC1C      _sprow_set_val
 0001:0000CDAC      _unord_get_idx
 0001:0000CDAC      c81_0
 0001:0000CE02      _unord_get_val
 0001:0000D343      _bkp_bump_col
 0001:0000D3DD      _bkp_interchange
 0001:0000DCF3      _iv_min
 0001:0000DF24      _chk_col_access
 0001:0000DFF9      _spBKPfactor
 0001:00010255      _spBKPsolve
 0001:00010720      c83_0
 0001:00010720      _scan_to
 0001:000108FF      _patch_col
 0001:00010972      _chase_col
 0001:00010A9F      _chase_past
 0001:00010BFB      _bump_col
 0001:00010CF0      c85_0
 0001:00010CF0      _iter_std_info
 0001:00010D38      _iter_std_stop_crit
 0001:00010D72      _iter_get
 0001:00010E5E      _iter_free
 0001:00010ECF      _iter_resize
 0001:00010F92      _iter_dump
 0001:00011090      _iter_copy2
 0001:00011163      _iter_copy
 0001:0001123F      _iter_gen_sym
 0001:0001137F      _iter_gen_nonsym
 0001:000114A7      _iter_gen_nonsym_posdef
 0001:000115B8      c91_0
 0001:000115B8      ___zconj__
 0001:000115E4      ___zip__
 0001:000116F0      ___zmltadd__
 0001:00011808      ___zmlt__
 0001:00011889      ___zadd__
 0001:000118DD      ___zsub__
 0001:00011931      ___zzero__
 0001:0001194C      __zm_copy
 0001:0001194C      c93_0
 0001:000119F6      __zv_copy
 0001:00011A6D      _zm_move
 0001:00011BBA      _zv_move
 0001:00011C64      _zmv_move
 0001:00011D62      _zvm_move
 0001:00011E8C      _z_finput
 0001:00011E8C      c95_0
 0001:00011F6A      _zm_finput
 0001:00011F9E      _izm_finput
 0001:0001221D      _bzm_finput
 0001:0001238D      _zv_finput
 0001:000123C1      _izv_finput
 0001:00012579      _bzv_finput
 0001:0001266F      _setzformat
 0001:0001268E      _z_foutput
 0001:000126CD      _zm_foutput
 0001:000127E9      _zv_foutput
 0001:000128C1      _zm_dump
 0001:00012A23      _zv_dump
 0001:00012B10      c97_0
 0001:00012B10      _zv_zero
 0001:00012B45      _zm_zero
 0001:00012B8B      _zm_get
 0001:00012CF1      _zv_get
 0001:00012DC4      _zm_free
 0001:00012E75      _zv_free
 0001:00012F07      _zm_resize
 0001:000131EA      _zv_resize
 0001:000132E5      _zv_get_vars
 0001:0001330F      _zm_get_vars
 0001:0001333E      _zv_resize_vars
 0001:0001336C      _zm_resize_vars
 0001:0001339D      _zv_free_vars
 0001:000133DD      _zm_free_vars
 0001:00013420      __zin_prod
 0001:00013420      c99_0
 0001:000134C8      _zv_mlt
 0001:00013584      _zv_add
 0001:00013607      _zv_mltadd
 0001:00013827      _zv_sub
 0001:000138AC      _zv_map
 0001:0001394C      __zv_map
 0001:000139EF      _zv_lincomb
 0001:00013B09      _zv_linlist
 0001:00013C4D      _zv_star
 0001:00013D60      _zv_slash
 0001:00013EDC      _zv_sum
 0001:00013F64      _px_zvec
 0001:0001417F      _pxinv_zvec
 0001:000142B3      _zv_rand
 0001:000142F0      c101_0
 0001:000142F0      _zm_add
 0001:000143BD      _zm_sub
 0001:0001448A      _zm_mlt
 0001:000145E6      _zmma_mlt
 0001:00014702      _zmam_mlt
 0001:00014872      _zmv_mlt
 0001:0001495D      _zsm_mlt
 0001:000149F9      _zvm_mlt
 0001:00014B29      _zm_adjoint
 0001:00014D1C      _zswap_rows
 0001:00014E20      _zswap_cols
 0001:00014F28      _mz_mltadd
 0001:000150D0      _zmv_mltadd
 0001:00015294      _zvm_mltadd
 0001:00015470      _zget_col
 0001:00015519      _zget_row
 0001:000155B3      _zset_col
 0001:00015660      _zset_row
 0001:000156E3      _zm_rand
 0001:00015730      __zv_norm1
 0001:00015730      c103_0
 0001:00015860      __zv_norm2
 0001:000159C0      __zv_norm_inf
 0001:00015B1C      _zm_norm1
 0001:00015BCC      _zm_norm_inf
 0001:00015C7C      _zm_norm_frob
 0001:00015D2C      _zmake
 0001:00015D2C      c105_0
 0001:00015D61      _zneg
 0001:00015D89      _zabs
 0001:00015E91      _zadd
 0001:00015EC0      _zsub
 0001:00015EEF      _zmlt
 0001:00015F2E      _zinv
 0001:0001609A      _zdiv
 0001:000160F9      _zsqrt
 0001:000161C9      _zexp
 0001:00016223      _zlog
 0001:00016280      _zconj
 0001:000162B4      c287_0
 0001:000162B4      _calloc
 0001:000162B4      ___org_calloc
 0001:000162E0      c289_0
 0001:000162E0      operator delete(void *)
 0001:000162E0      ___org_delete
 0001:000162F0      operator delete[](void *)
 0001:000162F0      c291_0
 0001:000162F0      ___org_deletea
 0001:00016300      _virt_reserve
 0001:00016300      c317_0
 0001:0001636C      _virt_alloc
 0001:00016394      _virt_commit
 0001:000163E0      _virt_decommit
 0001:000163F8      _virt_release
 0001:00016414      c319_0
 0001:00016434      ___CRTL_MEM_GetBorMemPtrs
 0001:000164B0      ___CRTL_MEM_CheckBorMem
 0001:000164B4      _malloc
 0001:000164B4      ___org_malloc
 0001:000164B4      c325_0
 0001:000164C4      ___org_free
 0001:000164C4      _free
 0001:000164D4      c327_0
 0001:000164D4      ___org_realloc
 0001:000164D4      _realloc
 0001:000164EC      ___CRTL_MEM_Revector
 0001:000164EC      c329_0
 0001:00016588      c329_2
 0001:00016594      __free_heaps
 0001:000165A4      c331_0
 0001:000165A4      ___CRTL_MEM_UseBorMM
 0001:000165A8      c335_0
 0001:00016B8C      __internal_free
 0001:00016CFC      __internal_malloc
 0001:00016EFC      __phys_avail
 0001:00016F14      __internal_free_heaps
 0001:00016F74      __expand
 0001:00016F74      c355_0
 0001:00016F74      ___org__expand
 0001:00017154      __internal_realloc
 0001:000171EC      __msize
 0001:000171EC      ___org__msize
 0001:00017208      c357_0
 0001:00017208      ___CRTL_VCL_Init
 0001:0001720C      c361_0
 0001:0001720C      ___CRTL_VCLLIB_Linkage
 0001:00017210      c500_0
 0001:00017210      _memchr
 0001:00017210      ___org_memchr
 0001:00017230      c504_0
 0001:00017230      _memcpy
 0001:00017230      ___org_memcpy
 0001:00017254      c508_0
 0001:00017254      _memmove
 0001:00017254      ___org_memmove
 0001:000172A0      _memset
 0001:000172A0      c510_0
 0001:000172A0      ___org_memset
 0001:0001732C      __wmemset
 0001:0001732C      c512_0
 0001:00017344      _strcat
 0001:00017344      ___org_strcat
 0001:00017344      c526_0
 0001:00017380      c528_0
 0001:00017380      ___org_strchr
 0001:00017380      _strchr
 0001:000173D4      _strlen
 0001:000173D4      ___org_strlen
 0001:000173D4      c534_0
 0001:00017430      ___org_strncat
 0001:00017430      c536_0
 0001:00017430      _strncat
 0001:000174A0      ___org_memcmp
 0001:000174A0      _memcmp
 0001:000174A0      c552_0
 0001:0001750C      ___org_strdup
 0001:0001750C      c558_0
 0001:0001750C      _strdup
 0001:00017540      c580_0
 0001:00017540      _strstr
 0001:00017540      ___org_strstr
 0001:00017594      c586_0
 0001:00017594      _wcslen
 0001:000175AC      _wcscpy
 0001:000175AC      c588_0
 0001:000175EC      __InitExceptBlockLDTC
 0001:000175EC      c628_0
 0001:00017625      __ExitExceptBlock
 0001:00017633      __ExceptionHandler
 0001:0001765C      c632_0
 0001:000177B3      c632_3
 0001:00017B10      __typeIDname(tpid *)
 0001:00017B48      __isSameTypeID(tpid *, tpid *)
 0001:00017C24      __isCompatTypeID(tpid *, tpid *, int, tpid * *)
 0001:00017D34      __adjustClassAdr(void *, tpid *, tpid *)
 0001:00017DB0      _InitTermAndUnexPtrs()
 0001:00017DD8      std::terminate()
 0001:00017E28      std::unexpected()
 0001:00017E50      c636_0
 0001:00017E50      c636_4
 0001:00017E7C      ___call_terminate
 0001:00017EF0      ___call_unexpected
 0001:00017F28      __ExceptInit
 0001:00017F74      __GetExceptDLLinfoInternal
 0001:00017F9C      ___DefHandler
 0001:00017F9C      c638_0
 0001:00017FA8      c642_0
 0001:00018098      __setexc
 0001:000180B4      __unsetexc
 0001:000180C4      __SetUserHandler
 0001:000180D8      __unsetuserhandler
 0001:000180E4      c642_3
 0001:000180E4      __init_except
 0001:000180FC      __exit_except
 0001:000180FC      c642_4
 0001:00018110      __InitDefaultHander
 0001:00018124      c646_0
 0001:00018124      __SetExceptionHandler
 0001:00018139      __UnsetExceptionHandler
 0001:00018165      __UnwindException
 0001:0001816C      c648_0
 0001:0001816C      jump()
 0001:00018172      ___doGlobalUnwind
 0001:00018187      invokeHnd()
 0001:00018190      ___eof
 0001:00018190      c660_0
 0001:00018218      c664_0
 0001:00018218      ___isatty
 0001:00018248      ___isatty_osfhandle
 0001:00018260      c666_0
 0001:00018260      ___lseek
 0001:000182D8      c670_0
 0001:00018344      ___read
 0001:00018474      c676_0
 0001:00018474      ___write
 0001:00018590      c678_0
 0001:000185A4      __flushall
 0001:000185A4      c696_0
 0001:000185DC      c698_0
 0001:000185DC      __fputc
 0001:000185DC      ___org__fputc
 0001:000185FC      __rtl_read
 0001:000185FC      c720_0
 0001:000185FC      ___org__rtl_read
 0001:00018644      __read
 0001:00018644      ___org__read
 0001:00018660      __rtl_write
 0001:00018660      c752_0
 0001:00018660      ___org__rtl_write
 0001:000186A8      ___org__write
 0001:000186A8      __write
 0001:000186C4      __allocbuf
 0001:000186C4      c756_0
 0001:00018744      _fflush
 0001:00018744      ___org_fflush
 0001:00018744      c818_0
 0001:000187C4      c824_0
 0001:000187C4      ___org_fgets
 0001:000187C4      _fgets
 0001:000188F4      __flushout
 0001:000188F4      c840_0
 0001:00018950      __initfmode
 0001:00018950      c844_0
 0001:00018960      __initfileinfo
 0001:00018974      ___org_fprintf
 0001:00018974      _fprintf
 0001:00018974      c852_0
 0001:00018998      c858_0
 0001:00018998      ___fputn
 0001:00018A74      _fscanf
 0001:00018A74      c872_0
 0001:00018A74      ___org_fscanf
 0001:00018A98      __get_handle
 0001:00018A98      c906_0
 0001:00018AD8      __dup_handle
 0001:00018B40      __free_handle
 0001:00018BF8      __init_handles
 0001:00018D54      ___IOerror
 0001:00018D54      c908_0
 0001:00018D98      ___DOSerror
 0001:00018DB8      ___NTerror
 0001:00018DCC      _isatty
 0001:00018DCC      c912_0
 0001:00018DCC      ___org_isatty
 0001:00018DD4      c914_0
 0001:00018E74      __fgetc
 0001:00018E74      ___org__fgetc
 0001:00018E8C      _fgetc
 0001:00018E8C      ___org_fgetc
 0001:00018F74      ___org_fputc
 0001:00018F74      _fputc
 0001:00018F74      c922_0
 0001:00019084      ___org_printf
 0001:00019084      _printf
 0001:00019084      c942_0
 0001:000190A8      c968_0
 0001:000190A8      __scanner
 0001:000198E0      ___scantoint64
 0001:000198E0      c976_0
 0001:00019B0C      c1000_0
 0001:00019B38      ___org_sscanf
 0001:00019B38      _sscanf
 0001:00019B5C      ___org_vsscanf
 0001:00019B5C      _vsscanf
 0001:00019B80      __init_streams
 0001:00019B80      c1008_0
 0001:00019C3C      __exit_streams
 0001:00019C3C      c1008_1
 0001:00019C98      _ungetc
 0001:00019C98      c1020_0
 0001:00019C98      ___org_ungetc
 0001:00019CE8      c1036_0
 0001:00019D98      ___vprinter
 0001:0001A6D4      __xfflush
 0001:0001A6D4      c1114_0
 0001:0001A6FC      c1120_0
 0001:0001A6FC      __win32DateTimeToPOSIX
 0001:0001A9C0      __getLocaleNumericInfo
 0001:0001A9C0      c1128_0
 0001:0001AA14      c1136_0
 0001:0001AA14      _isalnum
 0001:0001AA2C      _isascii
 0001:0001AA40      _isalpha
 0001:0001AA58      _iscntrl
 0001:0001AA6C      _isdigit
 0001:0001AA80      _isgraph
 0001:0001AA98      _islower
 0001:0001AAAC      _isprint
 0001:0001AAC4      _ispunct
 0001:0001AAD8      _isspace
 0001:0001AAEC      _isupper
 0001:0001AB00      _isxdigit
 0001:0001AB18      _iswalnum
 0001:0001AB18      c1138_0
 0001:0001AB30      _iswascii
 0001:0001AB44      _iswalpha
 0001:0001AB5C      _iswcntrl
 0001:0001AB70      _iswdigit
 0001:0001AB84      _iswgraph
 0001:0001AB9C      _iswlower
 0001:0001ABB0      _iswprint
 0001:0001ABC8      _iswpunct
 0001:0001ABDC      _iswspace
 0001:0001ABF0      _iswupper
 0001:0001AC04      _iswxdigit
 0001:0001AC1C      c1140_0
 0001:0001AC1C      ___isctype
 0001:0001AC60      ___iswctype
 0001:0001AC60      c1142_0
 0001:0001ACB8      c1144_0
 0001:0001ACB8      __setLocale32W
 0001:0001AD68      __setLocale32A
 0001:0001B230      __lockLocale
 0001:0001B23C      __unlockLocale
 0001:0001B248      c1144_2
 0001:0001B248      __initLocale
 0001:0001B24C      c1144_3
 0001:0001B24C      __cleanLocale
 0001:0001B2B8      __getLocale
 0001:0001B510      __setNewCategories
 0001:0001B6CC      __cleanCategories
 0001:0001BA78      __setLocaleFromString
 0001:0001BC98      __addCategoryName
 0001:0001BE38      __allocAndGetValue
 0001:0001BE38      c1148_0
 0001:0001BE94      __getShortValue
 0001:0001BEF0      __setCType
 0001:0001BFD8      __setMonetary
 0001:0001C158      __setTime
 0001:0001C5B4      __setNumeric
 0001:0001C63C      __setCollate
 0001:0001C648      __llocaleconv
 0001:0001C648      c1150_0
 0001:0001C6E0      c1168_0
 0001:0001C6E0      __lstrlwr
 0001:0001C704      __ltolower
 0001:0001C704      c1180_0
 0001:0001C758      _mblen
 0001:0001C758      c1188_0
 0001:0001C758      ___org_mblen
 0001:0001C7D4      ___org_mbtowc
 0001:0001C7D4      _mbtowc
 0001:0001C8A8      ___org_wctomb
 0001:0001C8A8      _wctomb
 0001:0001C91C      _mbstowcs
 0001:0001C91C      ___org_mbstowcs
 0001:0001CA84      ___org_wcstombs
 0001:0001CA84      _wcstombs
 0001:0001CC28      c1238_0
 0001:0001CC28      __llmul
 0001:0001CC4B      __lldiv
 0001:0001CCC3      __lludiv
 0001:0001CD0C      __llmod
 0001:0001CD86      __llumod
 0001:0001CDD4      __llshl
 0001:0001CDF0      __llshr
 0001:0001CE0C      __llushr
 0001:0001CE28      c1268_0
 0001:0001CE28      _ltoa
 0001:0001CE28      ___org_ltoa
 0001:0001CE30      c1272_0
 0001:0001CE30      ___matherr
 0001:0001CEE0      __pow10
 0001:0001CEE0      c1278_0
 0001:0001D068      c1292_0
 0001:0001D068      ___org_atan2
 0001:0001D068      _atan2
 0001:0001D11C      c1302_0
 0001:0001D11C      ___org_atol
 0001:0001D11C      _atol
 0001:0001D184      _atoi
 0001:0001D184      ___org_atoi
 0001:0001D194      c1314_0
 0001:0001D194      __clear87
 0001:0001D1A8      ___org_cos
 0001:0001D1A8      c1316_0
 0001:0001D1A8      _cos
 0001:0001D1E8      c1328_0
 0001:0001D1E8      __control87
 0001:0001D218      c1330_0
 0001:0001D218      ___realcvt
 0001:0001D21E      ___nextreal
 0001:0001D224      __scantod
 0001:0001D22A      __scanrslt
 0001:0001D230      c1334_0
 0001:0001D248      c1336_0
 0001:0001D260      ___org_exp
 0001:0001D260      c1344_0
 0001:0001D260      _exp
 0001:0001D2CC      c1350_0
 0001:0001D2CC      __f87_ArcTan
 0001:0001D32C      __f87_Exp2
 0001:0001D32C      c1352_0
 0001:0001D331      __f87_Exp10
 0001:0001D339      __f87_Exp
 0001:0001D3FC      __f87_Log2
 0001:0001D3FC      c1354_0
 0001:0001D400      __f87_Log10
 0001:0001D404      __f87_Log
 0001:0001D444      _fabs
 0001:0001D444      c1358_0
 0001:0001D454      c1368_0
 0001:0001D454      _floor
 0001:0001D470      c1376_0
 0001:0001D470      __fpreset
 0001:0001D488      _frexp
 0001:0001D488      ___org_frexp
 0001:0001D488      c1378_0
 0001:0001D4C0      _ftol()
 0001:0001D4C0      c1382_0
 0001:0001D4C0      __ftol
 0001:0001D4E8      __fuildq
 0001:0001D4E8      c1384_0
 0001:0001D518      c1386_0
 0001:0001D518      __fuistq
 0001:0001D53C      __fxam
 0001:0001D53C      c1388_0
 0001:0001D550      c1404_0
 0001:0001D550      ___int64toa
 0001:0001D604      ___org_ldexp
 0001:0001D604      _ldexp
 0001:0001D604      c1410_0
 0001:0001D67C      ___ldtrunc
 0001:0001D67C      c1414_0
 0001:0001D794      _log
 0001:0001D794      ___org_log
 0001:0001D794      c1416_0
 0001:0001D804      c1424_0
 0001:0001D804      ___longtoa
 0001:0001D878      ___utoa
 0001:0001D894      c1432_0
 0001:0001D894      ___org_itoa
 0001:0001D894      _itoa
 0001:0001D8C4      _ultoa
 0001:0001D8C4      ___org_ultoa
 0001:0001D8E4      __ltoa
 0001:0001D90C      c1436_0
 0001:0001D90C      ___org__matherr
 0001:0001D90C      __matherr
 0001:0001D938      c1438_0
 0001:0001D938      ___org__matherrl
 0001:0001D938      __matherrl
 0001:0001D968      c1440_0
 0001:0001D968      __initmatherr
 0001:0001D980      __qdiv10
 0001:0001D980      c1462_0
 0001:0001D9A8      c1464_0
 0001:0001D9A8      __qmul10
 0001:0001D9D8      _srand
 0001:0001D9D8      c1466_0
 0001:0001D9F4      c1466_2
 0001:0001DA00      _rand
 0001:0001DA1C      __lrand
 0001:0001DA68      c1468_0
 0001:0001DD4C      __cvt_init
 0001:0001DD64      c1470_0
 0001:0001E080      __cvt_initw
 0001:0001E098      __round
 0001:0001E098      c1476_0
 0001:0001E0C4      c1478_0
 0001:0001E590      __scan_init
 0001:0001E5A8      c1480_0
 0001:0001EA70      __scan_initw
 0001:0001EA88      c1482_0
 0001:0001EA88      _sin
 0001:0001EA88      ___org_sin
 0001:0001EAC8      c1490_0
 0001:0001EAC8      _sqrt
 0001:0001EAC8      ___org_sqrt
 0001:0001EB04      ___xcvt
 0001:0001EB04      c1524_0
 0001:0001EDD8      c1526_0
 0001:0001EDD8      ___xcvtw
 0001:0001F0CC      __setmbcp
 0001:0001F0CC      c1538_0
 0001:0001F1F0      __getmbcp
 0001:0001F1F8      c1538_3
 0001:0001F1F8      __initMBCSTable
 0001:0001F208      c1560_0
 0001:0001F208      __ismbcspace
 0001:0001F224      c1622_0
 0001:0001F224      __mbsrchr
 0001:0001F27C      c1674_0
 0001:0001F2C4      __assert
 0001:0001F324      c1690_0
 0001:0001F374      __ErrorMessageHelper
 0001:0001F3DC      c1694_0
 0001:0001F434      __ErrorMessage
 0001:0001F550      ___ErrorMessage
 0001:0001F560      __ErrorExit
 0001:0001F578      c1702_0
 0001:0001F578      c1702_3
 0001:0001F604      c1706_0
 0001:0001F810      _qsort
 0001:0001F810      ___org_qsort
 0001:0001F83C      c1721_0
 0001:0001F83C      __abort
 0001:0001F850      _abort
 0001:0001F860      c1759_0
 0001:0001F8B8      _exit
 0001:0001F8D0      __exit
 0001:0001F8E8      __cexit
 0001:0001F8F8      __c_exit
 0001:0001F908      c1767_0
 0001:0001F908      __init_wild_handlers
 0001:0001F924      __argv_default_expand
 0001:0001F924      c1769_0
 0001:0001F938      __wargv_default_expand
 0001:0001F938      c1771_0
 0001:0001F94C      __init_setargv_handlers
 0001:0001F94C      c1777_0
 0001:0001F974      c1783_0
 0001:0001F974      __setargv
 0001:0001F974      c1783_3
 0001:0001F9FC      c1783_4
 0001:0001F9FC      __exitargv
 0001:0001FAE0      __handle_setargv
 0001:0001FAE0      c1785_0
 0001:0001FC38      __handle_exitargv
 0001:0001FCC8      c1787_0
 0001:0001FCC8      __handle_wsetargv
 0001:0001FE5C      __handle_wexitargv
 0001:0001FEF0      c1845_0
 0001:0001FEF0      c1845_2
 0001:0001FF28      c1845_3
 0001:0001FF38      c1849_0
 0001:0001FF38      _setjmp
 0001:0001FF6E      _longjmp
 0001:0001FFEA      __DoLongJump__
 0001:0001FFF0      c1859_4
 0001:0001FFF0      c1859_0
 0001:00020024      __expandblock
 0001:00020170      c1859_3
 0001:00020190      c1863_0
 0001:000203B8      _signal
 0001:00020418      _raise
 0001:00020418      ___org_raise
 0001:00020488      __terminate
 0001:00020488      c1883_0
 0001:00020498      __create_shmem
 0001:000204A0      __init_exit_proc
 0001:00020574      __cleanup
 0001:000205E0      __startup
 0001:000205E0      c1885_0
 0001:00020784      c1899_0
 0001:00020784      ___CRTL_TLS_Alloc
 0001:0002078C      ___CRTL_TLS_Free
 0001:0002079C      ___CRTL_TLS_GetValue
 0001:000207AC      ___CRTL_TLS_SetValue
 0001:000207C0      ___CRTL_TLS_InitThread
 0001:000207C8      ___CRTL_TLS_ExitThread
 0001:000207D0      ___CRTL_TLS_GetInfo
 0001:000207D4      c1977_0
 0001:000207D4      c1977_3
 0001:000207FF      ___JumpToCatch__
 0001:00020A69      ___raiseDebuggerException
 0001:00020E24      _ThrowExceptionLDTC(void *, void *, void *, void *, unsigned int, unsigned int, unsigned int, unsigned char *, void *)
 0001:00020E59      _ReThrowException(unsigned int, unsigned char *)
 0001:00020EC4      __Global_unwind
 0001:00021000      _CatchCleanup()
 0001:00021530      __Local_unwind
 0001:00021543      __Return_unwind
 0001:000215A4      ____ExceptionHandler
 0001:00022322      __CurrExcContext
 0002:00000098      d1_1
 0002:000000DC      ___isGUI
 0002:00000114      ___isVCLPackage
 0002:00000115      ___isDLL
 0002:00000122      ___useDynamicTLS
 0002:00000123      __TLS_index
 0002:00000127      __TLS_index4
 0002:0000012B      __hInstance
 0002:00000130      ___CPPdebugHook_segment
 0002:00000130      ___CPPdebugHook
 0002:00000134      __PackageInfoTable
 0002:0000013C      d2_1
 0002:00000144      _foo_type_name
 0002:00000150      _foo_free_func
 0002:00000D0C      d7_1
 0002:00000DE0      d9_1
 0002:00001534      d11_1
 0002:00001958      d13_1
 0002:00001AA4      d15_1
 0002:00001CEC      d17_1
 0002:00001F80      d19_1
 0002:000020FC      d23_1
 0002:000021DC      d31_1
 0002:000023FC      d35_1
 0002:00002480      _mem_connect
 0002:000027E4      d37_1
 0002:000029C8      d55_1
 0002:00002A94      d69_1
 0002:00002C64      d71_1
 0002:00002FE4      d73_1
 0002:0000332C      d81_1
 0002:00003774      d83_1
 0002:000038A8      d85_1
 0002:00003B1C      d93_1
 0002:00003BF4      d95_1
 0002:00003F8C      d97_1
 0002:000040C0      d99_1
 0002:00004344      d101_1
 0002:000046B8      d103_1
 0002:00004794      d105_1
 0002:000047D4      d317_1
 0002:000047D8      d319_1
 0002:00004870      d329_1
 0002:00004874      __heap_redirector
 0002:00004890      d335_1
 0002:00004890      __virt_heap_size
 0002:00004894      __virt_chunk_size
 0002:00004898      __virt_chunk_size2
 0002:0000489C      __nv_heap_size
 0002:000048A0      __smalloc_threshold
 0002:000048A4      __virt_chunk_free
 0002:000048A8      __virt_chunk_free2
 0002:000048AC      __firstHeap
 0002:000048B0      __lastHeap
 0002:000048B4      __linktable
 0002:000048B8      __freeStart
 0002:000048C4      __rover
 0002:000048CC      ___allocated
 0002:000048D0      ___xxPersonality
 0002:000048D0      d630_0
 0002:000048D4      d632_1
 0002:00004BF4      ___terminatePTR
 0002:00004BF4      d634_1
 0002:00004BF8      ___unexpectdPTR
 0002:00004BFC      __chtbl__ std::terminate()
 0002:00004C1C      __ectbl__ std::terminate()
 0002:00004C30      d636_1
 0002:00004C30      ___CPPexceptionList
 0002:00004C34      ___exceptFlags
 0002:00004C38      ___throwFileName
 0002:00004C3C      ___throwLineNumber
 0002:00004C40      ___throwExceptionName
 0002:00004C44      ___exceptStaticBuffP
 0002:00004C48      ___exceptMemAllocVars
 0002:00004C4C      ___ExceptStaticXbuff
 0002:00004CCC      __ExceptVarsSize
 0002:00004CE0      __chtbl__ __call_terminate()
 0002:00004D00      __ectbl__ __call_terminate()
 0002:00004D14      __stkchk
 0002:00004D14      d642_1
 0002:00004D28      __cfinfo_get
 0002:00004D28      d678_1
 0002:00004D2C      __fileinfo
 0002:00004D2C      d758_0
 0002:00004D30      d830_0
 0002:00004D30      __streams
 0002:000051E0      d832_0
 0002:000051E0      __nfile
 0002:000051E4      __openfd
 0002:000052AC      __fmode
 0002:000052AC      d842_0
 0002:000052B0      d844_1
 0002:000052B0      __fmodeptr
 0002:000052B4      __dosErrorToSV
 0002:000052B4      d908_1
 0002:000053E0      d940_1
 0002:000053E0      __sys_errlist
 0002:000054A4      __sys_nerr
 0002:0000585C      d968_1
 0002:000058E0      d1036_1
 0002:00005958      d1116_0
 0002:00005958      __chartype
 0002:00005B5C      d1118_1
 0002:00005B5C      __localeconvention
 0002:00005B98      d1120_1
 0002:00005BE8      d1122_0
 0002:00005BE8      __lower
 0002:00005CE8      ___mb_cur_max
 0002:00005CE8      d1144_1
 0002:00005CEC      ___localeLock
 0002:00005E00      d1146_0
 0002:00005E00      _CMonetary
 0002:00005E34      _CNumeric
 0002:00005E4C      _CTimeDate
 0002:00005F10      _CLOCALE
 0002:00005F3C      ___locale
 0002:00006060      d1148_1
 0002:000060C8      d1272_1
 0002:000060D8      d1278_1
 0002:00006198      d1292_1
 0002:000061B0      d1316_1
 0002:000061BC      __realcvtptr
 0002:000061BC      d1334_1
 0002:000061C0      __nextrealptr
 0002:000061C4      __scantodptr
 0002:000061C8      __scanrsltptr
 0002:00006224      d1336_1
 0002:00006224      __realcvtwptr
 0002:00006228      __nextrealwptr
 0002:0000622C      __scanwtodptr
 0002:00006230      __scanwrsltptr
 0002:0000628C      d1338_0
 0002:0000628C      __default87
 0002:00006290      d1344_1
 0002:0000629C      d1350_1
 0002:000062B0      d1352_1
 0002:000062C4      d1354_1
 0002:000062DC      __huge_flt
 0002:000062DC      d1392_0
 0002:000062E0      __huge_dble
 0002:000062E8      __huge_ldble
 0002:000062F2      __max_flt
 0002:000062F6      __max_dble
 0002:000062FE      __max_ldble
 0002:00006308      __indefinite
 0002:0000630C      __tiny_ldble
 0002:00006318      ___ieee_64_p_inf
 0002:00006320      ___ieee_64_n_inf
 0002:00006328      ___ieee_64_p_nanq
 0002:00006330      ___ieee_64_n_nanq
 0002:00006338      ___ieee_64_p_nans
 0002:00006340      ___ieee_64_n_nans
 0002:00006348      ___ieee_64_p_zero
 0002:00006350      ___ieee_64_n_zero
 0002:00006358      __turboFloat
 0002:00006358      d1402_0
 0002:0000635C      __floatconvert
 0002:00006360      d1410_1
 0002:00006370      d1416_1
 0002:0000637C      __pmatherr
 0002:0000637C      d1440_1
 0002:00006380      __pmatherrl
 0002:00006384      __mathwhy
 0002:00006384      d1444_0
 0002:000063C8      d1466_1
 0002:000063D0      d1468_1
 0002:000063E4      d1470_1
 0002:0000640C      d1478_1
 0002:00006434      d1480_1
 0002:0000645C      d1482_1
 0002:00006468      d1490_1
 0002:00006478      d1538_1
 0002:00006478      __kalpha
 0002:0000647A      __kpunct
 0002:000064C0      d1674_1
 0002:000064E4      d1690_1
 0002:00006508      d1692_1
 0002:00006508      _errno
 0002:0000650C      __messagefunc
 0002:0000650C      d1694_1
 0002:00006510      __messagefile
 0002:0000651C      d1702_1
 0002:00006544      d1721_1
 0002:00006564      d1723_0
 0002:00006564      ___pCallAtExitProcs
 0002:00006568      d1759_1
 0002:00006568      __exitbuf
 0002:0000656C      __exitfopen
 0002:00006570      __exitopen
 0002:00006574      d1779_0
 0002:00006574      __setargv_ptr
 0002:00006578      __exitargv_ptr
 0002:0000657C      d1781_0
 0002:0000657C      __wsetargv_ptr
 0002:00006580      __wexitargv_ptr
 0002:00006584      d1783_1
 0002:00006584      __setargv__
 0002:000065D8      d1785_1
 0002:000065D8      __cmdline_escapes
 0002:00006600      d1787_1
 0002:00006624      __argv_expand_ptr
 0002:00006624      d1841_0
 0002:00006628      d1843_0
 0002:00006628      __wargv_expand_ptr
 0002:0000662C      __argv0
 0002:0000662C      d1845_1
 0002:0000664C      d1849_1
 0002:00006650      __setenvp__
 0002:00006650      d1859_1
 0002:000066A4      d1863_1
 0002:00006704      __isWindows
 0002:00006704      d1881_0
 0002:00006708      d1883_1
 0002:0000670C      d1977_1
 0002:0000670C      ___debuggerDisableTerminateCallback
 0003:00000000      b2_2
 0003:00000018      _restart
 0003:00000018      b9_2
 0003:00000038      b11_2
 0003:0000008C      b23_2
 0003:0000016C      b31_2
 0003:000001C0      b35_2
 0003:00000210      b37_2
 0003:000021E0      b71_2
 0003:000021EC      b95_2
 0003:00002240      __bormm_pfn_FreeMem
 0003:00002240      b319_2
 0003:00002244      __bormm_pfn_GetMem
 0003:00002248      __bormm_pfn_ReallocMem
 0003:0000224C      __bormm_pfn_HeapAddRef
 0003:00002250      __bormm_pfn_HeapRelease
 0003:00002258      b632_2
 0003:00002668      __DestructorCountPtr
 0003:00002668      b636_2
 0003:00002670      b642_2
 0003:00002670      __HandlerPtr
 0003:00002674      __UserHandlerPtr
 0003:00002678      __pidtab
 0003:00002678      b832_1
 0003:00002740      __handles
 0003:00002808      __doserrno
 0003:00002808      b908_2
 0003:0000280C      b914_1
 0003:00002810      __mbctype
 0003:00002810      b1538_2
 0003:00002914      __mbcsCodePage
 0003:00002918      b1674_2
 0003:00002A18      b1690_2
 0003:00002A34      b1702_2
 0003:00002A34      __ostype
 0003:00002A38      b1706_1
 0003:00002A40      __argv
 0003:00002A40      b1783_2
 0003:00002A4C      b1785_2
 0003:00002A50      b1787_2
 0003:00002A54      __environ
 0003:00002A54      b1859_2
 0003:00002A5C      __envsize
 0003:00002A60      __env_lock
 0003:00002A64      b1881_1
 0003:00002A64      __C0argc
 0003:00002A68      __C0argv
 0003:00002A6C      __C0environ
 0003:00002A70      __oscmd
 0003:00002A74      __osenv
 0003:00002A78      __argc
 0003:00002A7C      __dll_table
 0003:00002A84      __ExcRegPtr
 0003:00002A88      __wosenv
 0003:00002A8C      __woscmd
 0003:00002A90      __wC0argv
 0003:00002A94      __wC0environ
 0003:00002A98      __exe_table
 0003:00002AA0      __stkbase
 0003:00002AA4      b1977_2
 0003:00002AA8      ___pCPPdebugHook
 0004:00000000      ___xxInfo
 0004:00000000      t636_3
