
 Start         Length     Name                   Class
 0001:00401000 000023C6CH _TEXT                  CODE
 0002:00425000 000007BFCH _DATA                  DATA
 0003:0042CBFC 000002A58H _BSS                   BSS
 0004:00000000 00000009CH _TLS                   TLS

  Address         Publics by Name

 0001:00000140      Sysinit::__linkproc__ __fastcall GetTls()
 0001:0000C025      _BKPfactor
 0001:0000C4ED      _BKPsolve
 0001:0000C8B0      _CHfactor
 0001:0000CA18      _CHsolve
 0002:00006C0C      _CLOCALE
 0002:00006AFC      _CMonetary
 0002:00006B30      _CNumeric
 0002:00006B48      _CTimeDate
 0001:000227A0      _CatchCleanup()
 0001:0000E488      _Dsolve
 0001:0000F674      _Hfactor
 0001:000192F0      _InitTermAndUnexPtrs()
 0001:0000CAA3      _LDLfactor
 0001:0000CC07      _LDLsolve
 0001:0000EE20      _LDLupdate
 0001:0000E56C      _LTsolve
 0001:0000B814      _LUTsolve
 0001:0000BB5A      _LUcondest
 0001:0000B4A8      _LUfactor
 0001:0000B76C      _LUsolve
 0001:0000E118      _Lsolve
 0001:0000CCC3      _MCHfactor
 0001:0000CF59      _QRCPfactor
 0001:0000D793      _QRCPsolve
 0001:0000D9C4      _QRTsolve
 0001:0000DC24      _QRcondest
 0001:0000CE4C      _QRfactor
 0001:0000D6A9      _QRsolve
 0001:0000EF74      _QRupdate
 0001:000225F9      _ReThrowException(unsigned int, unsigned char *)
 0001:000225C4      _ThrowExceptionLDTC(void *, void *, void *, void *, unsigned int, unsigned int, unsigned int, unsigned char *, void *)
 0001:0000E29C      _UTsolve
 0001:0000DFA4      _Usolve
 0003:00002A08      __C0argc
 0003:00002A0C      __C0argv
 0003:00002A10      __C0environ
 0001:00023AC2      __CurrExcContext
 0003:00002604      __DestructorCountPtr
 0001:0002178A      __DoLongJump__
 0001:00020F38      __ErrorExit
 0001:00020E0C      __ErrorMessage
 0001:00020D4C      __ErrorMessageHelper
 0003:00002A28      __ExcRegPtr
 0001:00019468      __ExceptInit
 0002:000059B8      __ExceptVarsSize
 0001:00018B73      __ExceptionHandler
 0001:00018B65      __ExitExceptBlock
 0001:00000059      __GetExceptDLLinfo
 0001:000194B4      __GetExceptDLLinfoInternal
 0001:00022664      __Global_unwind
 0003:0000260C      __HandlerPtr
 0001:00019650      __InitDefaultHander
 0001:00018B2C      __InitExceptBlockLDTC
 0001:00022CD0      __Local_unwind
 0002:00000134      __PackageInfoTable
 0001:0000D28E      __Qsolve
 0001:00022CE3      __Return_unwind
 0001:00019664      __SetExceptionHandler
 0001:00019604      __SetUserHandler
 0002:00000123      __TLS_index
 0002:00000127      __TLS_index4
 0001:00019679      __UnsetExceptionHandler
 0001:000196A5      __UnwindException
 0003:00002610      __UserHandlerPtr
 0002:00000130      ___CPPdebugHook
 0002:00000130      ___CPPdebugHook_segment
 0002:0000591C      ___CPPexceptionList
 0001:0001796C      ___CRTL_MEM_CheckBorMem
 0001:000178F0      ___CRTL_MEM_GetBorMemPtrs
 0001:000179A8      ___CRTL_MEM_Revector
 0001:00017A60      ___CRTL_MEM_UseBorMM
 0001:00021F24      ___CRTL_TLS_Alloc
 0001:00021F68      ___CRTL_TLS_ExitThread
 0001:00021F2C      ___CRTL_TLS_Free
 0001:00021F70      ___CRTL_TLS_GetInfo
 0001:00021F3C      ___CRTL_TLS_GetValue
 0001:00021F60      ___CRTL_TLS_InitThread
 0001:00021F4C      ___CRTL_TLS_SetValue
 0001:000186C8      ___CRTL_VCLLIB_Linkage
 0001:000186C4      ___CRTL_VCL_Init
 0001:0001AAC0      ___DOSerror
 0001:000194DC      ___DefHandler
 0001:00020F28      ___ErrorMessage
 0002:00005938      ___ExceptStaticXbuff
 0001:0001AA7C      ___IOerror
 0001:00021F9F      ___JumpToCatch__
 0001:0001AAE0      ___NTerror
 0001:00000140      ___System__GetTls
 0001:00022D44      ____ExceptionHandler
 0001:000196D0      ___access
 0001:00009600      ___add__
 0002:000055B8      ___allocated
 0001:000193BC      ___call_terminate
 0001:00019430      ___call_unexpected
 0001:0001970C      ___close
 0002:00007370      ___debuggerDisableTerminateCallback
 0001:000196B2      ___doGlobalUnwind
 0001:0001976C      ___eof
 0002:00005920      ___exceptFlags
 0002:00005934      ___exceptMemAllocVars
 0002:00005930      ___exceptStaticBuffP
 0001:0001A3E8      ___fputn
 0001:0001A36C      ___getfp
 0002:00006FAC      ___ieee_64_n_inf
 0002:00006FBC      ___ieee_64_n_nanq
 0002:00006FCC      ___ieee_64_n_nans
 0002:00006FDC      ___ieee_64_n_zero
 0002:00006FA4      ___ieee_64_p_inf
 0002:00006FB4      ___ieee_64_p_nanq
 0002:00006FC4      ___ieee_64_p_nans
 0002:00006FD4      ___ieee_64_p_zero
 0001:0001F07C      ___int64toa
 0001:00009677      ___ip4__
 0001:00009408      ___ip__
 0002:00000115      ___isDLL
 0002:000000DC      ___isGUI
 0002:00000114      ___isVCLPackage
 0001:000197F4      ___isatty
 0001:00019824      ___isatty_osfhandle
 0001:0001CA9C      ___isctype
 0001:0001CAE0      ___iswctype
 0001:0000985F      ___lc4__
 0001:0001F130      ___ldtrunc
 0002:00006C38      ___locale
 0002:000069E8      ___localeLock
 0001:0001F248      ___longtoa
 0001:0001983C      ___lseek
 0001:00009A0E      ___ma4__
 0001:0001ECB0      ___matherr
 0002:000069E4      ___mb_cur_max
 0001:0001ADAC      ___mkname
 0001:00009508      ___mltadd__
 0001:0001EFAA      ___nextreal
 0001:000198B4      ___open
 0001:0001A2C0      ___openfp
 0001:00018430      ___org__expand
 0001:0001AB9C      ___org__fgetc
 0001:00019DB4      ___org__fputc
 0001:0001F350      ___org__matherr
 0001:0001F37C      ___org__matherrl
 0001:000186A8      ___org__msize
 0001:00019E1C      ___org__read
 0001:00019DD4      ___org__rtl_read
 0001:00019E38      ___org__rtl_write
 0001:00019E80      ___org__write
 0001:00019E9C      ___org_access
 0001:0001EF50      ___org_atoi
 0001:0001EEE8      ___org_atol
 0001:00017770      ___org_calloc
 0001:0001779C      ___org_delete
 0001:000177AC      ___org_deletea
 0001:00019F24      ___org_fclose
 0001:00019FB4      ___org_fflush
 0001:0001ABB4      ___org_fgetc
 0001:0001A034      ___org_fgets
 0001:0001A398      ___org_fopen
 0001:0001A3C4      ___org_fprintf
 0001:0001AC9C      ___org_fputc
 0001:0001A5F4      ___org_fread
 0001:00017980      ___org_free
 0001:0001A628      ___org_fscanf
 0001:0001A6A8      ___org_fseek
 0001:0001A70C      ___org_ftell
 0001:0001A78C      ___org_fwrite
 0001:0001AAF4      ___org_isatty
 0001:0001F2D8      ___org_itoa
 0001:0001ECA8      ___org_ltoa
 0001:00017970      ___org_malloc
 0001:0001E5D8      ___org_mblen
 0001:0001E79C      ___org_mbstowcs
 0001:0001E654      ___org_mbtowc
 0001:000186CC      ___org_memchr
 0001:000189A8      ___org_memcmp
 0001:000186EC      ___org_memcpy
 0001:00018710      ___org_memmove
 0001:0001875C      ___org_memset
 0001:0001AE40      ___org_printf
 0001:00021BB8      ___org_raise
 0001:00017990      ___org_realloc
 0001:0001B8C8      ___org_setbuf
 0001:0001B8F0      ___org_setvbuf
 0001:000204A0      ___org_sqrt
 0001:0001B96C      ___org_sscanf
 0001:00018800      ___org_strcat
 0001:0001883C      ___org_strchr
 0001:00018890      ___org_strcmp
 0001:00018A14      ___org_strdup
 0001:000188DC      ___org_strlen
 0001:00018938      ___org_strncat
 0001:00018A48      ___org_strstr
 0001:0001F308      ___org_ultoa
 0001:0001BACC      ___org_ungetc
 0001:0001B990      ___org_vsscanf
 0001:0001E904      ___org_wcstombs
 0001:0001E728      ___org_wctomb
 0003:00002A4C      ___pCPPdebugHook
 0002:000071C8      ___pCallAtExitProcs
 0001:00022209      ___raiseDebuggerException
 0001:00019B1C      ___read
 0001:0001EFA4      ___realcvt
 0001:0001B69C      ___scantoint64
 0001:000095D8      ___smlt__
 0001:0000962F      ___sub__
 0002:000058E0      ___terminatePTR
 0002:0000592C      ___throwExceptionName
 0002:00005924      ___throwFileName
 0002:00005928      ___throwLineNumber
 0001:0001ADFC      ___tmpnam
 0002:000058E4      ___unexpectdPTR
 0002:00000122      ___useDynamicTLS
 0001:0001F2BC      ___utoa
 0001:0001BBE8      ___vprinter
 0001:00019C4C      ___write
 0001:000204DC      ___xcvt
 0001:000207B0      ___xcvtw
 0004:00000000      ___xxInfo
 0002:000055BC      ___xxPersonality
 0001:00016D9D      ___zadd__
 0001:00016ACC      ___zconj__
 0001:0000965E      ___zero__
 0001:00016AF8      ___zip__
 0001:00016D1C      ___zmlt__
 0001:00016C04      ___zmltadd__
 0001:00016DF1      ___zsub__
 0001:00016E45      ___zzero__
 0001:00020FDC      __abort
 0001:00000000      __acrtused
 0001:0001DB18      __addCategoryName
 0001:00019274      __adjustClassAdr(void *, tpid *, tpid *)
 0001:0001DCB8      __allocAndGetValue
 0001:00019EA4      __allocbuf
 0003:00002A1C      __argc
 0003:000029E4      __argv
 0002:00007290      __argv0
 0001:000210C4      __argv_default_expand
 0002:00007288      __argv_expand_ptr
 0001:00020C9C      __assert
 0003:000021DC      __bormm_pfn_FreeMem
 0003:000021E0      __bormm_pfn_GetMem
 0003:000021E8      __bormm_pfn_HeapAddRef
 0003:000021EC      __bormm_pfn_HeapRelease
 0003:000021E4      __bormm_pfn_ReallocMem
 0001:00021098      __c_exit
 0001:00021088      __cexit
 0002:00005A14      __cfinfo_get
 0002:00006654      __chartype
 0002:000059CC      __chtbl__ __call_terminate()
 0002:000058E8      __chtbl__ std::terminate()
 0001:0001D54C      __cleanCategories
 0001:0001D0CC      __cleanLocale
 0001:00021D14      __cleanup
 0001:0001EF60      __clear87
 0002:0000723C      __cmdline_escapes
 0001:0001EF74      __control87
 0001:00021C38      __create_shmem
 0001:0001F790      __cvt_init
 0001:0001FAC4      __cvt_initw
 0002:00006F64      __default87
 0003:00002A20      __dll_table
 0002:00005FA4      __dosErrorToSV
 0003:000027A4      __doserrno
 0001:0001A800      __dup_handle
 0002:000059EC      __ectbl__ __call_terminate()
 0002:00005908      __ectbl__ std::terminate()
 0003:00002A04      __env_lock
 0003:000029F8      __environ
 0003:00002A00      __envsize
 0003:00002A3C      __exe_table
 0001:00021070      __exit
 0001:0001963C      __exit_except
 0001:0001BA70      __exit_streams
 0001:0002119C      __exitargv
 0002:000071DC      __exitargv_ptr
 0002:000071CC      __exitbuf
 0002:000071D0      __exitfopen
 0002:000071D4      __exitopen
 0001:00018430      __expand
 0001:000217C4      __expandblock
 0001:0001AB9C      __fgetc
 0002:00005A1C      __fileinfo
 0002:00005598      __firstHeap
 0002:00006FE8      __floatconvert
 0001:00019D7C      __flushall
 0001:0001A164      __flushout
 0002:00005F9C      __fmode
 0002:00005FA0      __fmodeptr
 0001:0001EFFC      __fpreset
 0001:00019DB4      __fputc
 0002:000055A4      __freeStart
 0001:0001A868      __free_handle
 0001:00017A50      __free_heaps
 0001:0001F014      __fuildq
 0001:0001F044      __fuistq
 0001:0001F068      __fxam
 0001:00000066      __getHInstance
 0001:0001D138      __getLocale
 0001:0001C840      __getLocaleNumericInfo
 0001:0001DD14      __getShortValue
 0001:0001A7C0      __get_handle
 0001:00020BC8      __getmbcp
 0002:0000012B      __hInstance
 0001:000213D8      __handle_exitargv
 0001:00021280      __handle_setargv
 0001:000215FC      __handle_wexitargv
 0001:00021468      __handle_wsetargv
 0003:000026DC      __handles
 0002:00005560      __heap_redirector
 0002:00006F6C      __huge_dble
 0002:00006F68      __huge_flt
 0002:00006F74      __huge_ldble
 0001:00006618      __in_prod
 0002:00006F94      __indefinite
 0001:0001D0C8      __initLocale
 0001:00020BD0      __initMBCSTable
 0001:00019624      __init_except
 0001:00021C40      __init_exit_proc
 0001:0001A920      __init_handles
 0001:000210EC      __init_setargv_handlers
 0001:0001B9B4      __init_streams
 0001:000210A8      __init_wild_handlers
 0001:0001A1D0      __initfileinfo
 0001:0001A1C0      __initfmode
 0001:0001F3AC      __initmatherr
 0001:00018048      __internal_free
 0001:000183D0      __internal_free_heaps
 0001:000181B8      __internal_malloc
 0001:00018610      __internal_realloc
 0001:00019164      __isCompatTypeID(tpid *, tpid *, int, tpid * *)
 0001:0000005E      __isDLL
 0001:00019088      __isSameTypeID(tpid *, tpid *)
 0002:00007368      __isWindows
 0001:00020BE0      __ismbcspace
 0002:000070DC      __kalpha
 0002:000070DE      __kpunct
 0002:0000559C      __lastHeap
 0002:000055A0      __linktable
 0001:0001EACB      __lldiv
 0001:0001EB8C      __llmod
 0001:0001EAA8      __llmul
 0001:0001E4C8      __llocaleconv
 0001:0001EC54      __llshl
 0001:0001EC70      __llshr
 0001:0001EB43      __lludiv
 0001:0001EC06      __llumod
 0001:0001EC8C      __llushr
 0002:00006858      __localeconvention
 0001:0001D0B0      __lockLocale
 0002:000068E4      __lower
 0001:0001F460      __lrand
 0001:0001E560      __lstrlwr
 0001:0001F328      __ltoa
 0001:0001E584      __ltolower
 0001:00003EDC      __m_copy
 0001:0001F350      __matherr
 0001:0001F37C      __matherrl
 0002:00006FF4      __mathwhy
 0002:00006F82      __max_dble
 0002:00006F7E      __max_flt
 0002:00006F8A      __max_ldble
 0003:000028C0      __mbcsCodePage
 0003:000027BC      __mbctype
 0001:00020BFC      __mbsrchr
 0002:00007174      __messagefile
 0002:00007170      __messagefunc
 0001:000186A8      __msize
 0002:00006E98      __nextrealptr
 0002:00006F00      __nextrealwptr
 0002:00005ED0      __nfile
 0002:00005A18      __notUmask
 0002:00005588      __nv_heap_size
 0002:00005ED4      __openfd
 0003:00002A14      __oscmd
 0003:00002A18      __osenv
 0003:000029E0      __ostype
 0001:000183B8      __phys_avail
 0003:00002614      __pidtab
 0002:00006FEC      __pmatherr
 0002:00006FF0      __pmatherrl
 0001:0001ED60      __pow10
 0001:0001F3C4      __qdiv10
 0001:0001F3EC      __qmul10
 0001:00019E1C      __read
 0002:00006E94      __realcvtptr
 0002:00006EFC      __realcvtwptr
 0002:000055B0      __rover
 0001:00019DD4      __rtl_read
 0001:00019E38      __rtl_write
 0001:0001FFA8      __scan_init
 0001:00020488      __scan_initw
 0001:0001AE64      __scanner
 0001:0001EFB6      __scanrslt
 0002:00006EA0      __scanrsltptr
 0001:0001EFB0      __scantod
 0002:00006E9C      __scantodptr
 0002:00006F08      __scanwrsltptr
 0002:00006F04      __scanwtodptr
 0001:0001DD70      __setCType
 0001:0001E4BC      __setCollate
 0001:0001CBE8      __setLocale32A
 0001:0001CB38      __setLocale32W
 0001:0001D8F8      __setLocaleFromString
 0001:0001DE58      __setMonetary
 0001:0001D390      __setNewCategories
 0001:0001E434      __setNumeric
 0001:0001DFD8      __setTime
 0001:00008CA1      __set_col
 0001:00008D36      __set_row
 0001:00021114      __setargv
 0002:000071E8      __setargv__
 0002:000071D8      __setargv_ptr
 0002:000072B4      __setenvp__
 0001:000195D8      __setexc
 0001:00020AA4      __setmbcp
 0002:0000558C      __smalloc_threshold
 0001:00021D80      __startup
 0003:00002A44      __stkbase
 0002:00005A00      __stkchk
 0001:00018A9C      __stpcpy
 0002:00005A20      __streams
 0002:000060DC      __sys_errlist
 0002:000061A0      __sys_nerr
 0001:00021C28      __terminate
 0002:00006F98      __tiny_ldble
 0003:000027AC      __tmpnum
 0002:00006FE4      __turboFloat
 0001:00019050      __typeIDname(tpid *)
 0001:0001BB1C      __unlink
 0001:0001D0BC      __unlockLocale
 0001:000195F4      __unsetexc
 0001:00019618      __unsetuserhandler
 0001:00003F86      __v_copy
 0001:00006ACC      __v_map
 0001:0000F174      __v_norm1
 0001:0000F281      __v_norm2
 0001:0000F381      __v_norm_inf
 0002:00005590      __virt_chunk_free
 0002:00005594      __virt_chunk_free2
 0002:00005580      __virt_chunk_size
 0002:00005584      __virt_chunk_size2
 0002:0000557C      __virt_heap_size
 0003:00002A34      __wC0argv
 0003:00002A38      __wC0environ
 0001:000210D8      __wargv_default_expand
 0002:0000728C      __wargv_expand_ptr
 0002:000071E4      __wexitargv_ptr
 0001:0001C57C      __win32DateTimeToPOSIX
 0001:000187E8      __wmemset
 0003:00002A30      __woscmd
 0003:00002A2C      __wosenv
 0001:00019E80      __write
 0002:000071E0      __wsetargv_ptr
 0001:0001C524      __xfclose
 0001:0001C554      __xfflush
 0001:00020FF0      _abort
 0001:00019E9C      _access
 0001:0001EF50      _atoi
 0001:0001EEE8      _atol
 0001:0001265C      _band2mat
 0001:000131D4      _bdLDLfactor
 0001:000133AC      _bdLDLsolve
 0001:00012D7D      _bdLUfactor
 0001:00012FE2      _bdLUsolve
 0001:000124FB      _bd_copy
 0001:00012228      _bd_free
 0001:00012158      _bd_get
 0001:0001355F      _bd_mv_mlt
 0001:00012288      _bd_resize
 0001:000128A9      _bd_transp
 0001:000053A7      _bfin_vec
 0001:00011C1C      _bifactor
 0001:00011514      _bisvd
 0001:0000A62B      _biv_finput
 0001:00004D84      _bm_finput
 0001:000050A2      _bpx_finput
 0001:00017770      _calloc
 0001:00004A85      _catch_FPE
 0001:00000150      _cmp_perm
 0001:00004604      _count_errs
 0001:0000F273      _cube
 0001:00009C1A      _d_save
 0001:000045C0      _err_is_list_attached
 0001:00004484      _err_list_attach
 0001:00004571      _err_list_free
 0002:0000716C      _errno
 0001:00004617      _ev_err
 0001:00021058      _exit
 0001:0001EFEC      _fabs
 0001:00019F24      _fclose
 0001:00019FB4      _fflush
 0001:0001ABB4      _fgetc
 0001:0001A034      _fgets
 0001:0001A398      _fopen
 0001:0001A3C4      _fprintf
 0001:0001AC9C      _fputc
 0001:0001A5F4      _fread
 0001:00017980      _free
 0001:0001A628      _fscanf
 0001:0001A6A8      _fseek
 0001:0001A70C      _ftell
 0001:0001A78C      _fwrite
 0001:00008B80      _get_col
 0001:00008C10      _get_row
 0001:0000EB44      _givens
 0001:0000E9B7      _hhtrcols
 0001:0000E893      _hhtrrows
 0001:0000E7C8      _hhtrvec
 0001:0000E708      _hhvec
 0001:00005216      _ifin_vec
 0001:0000A4A1      _iiv_finput
 0001:00004B2D      _im_finput
 0001:00004F08      _ipx_finput
 0001:0001C894      _isalnum
 0001:0001C8C0      _isalpha
 0001:0001C8AC      _isascii
 0001:0001AAF4      _isatty
 0001:0001C8D8      _iscntrl
 0001:0001C8EC      _isdigit
 0001:0001C900      _isgraph
 0001:0001C918      _islower
 0001:0001C92C      _isprint
 0001:0001C944      _ispunct
 0001:0001C958      _isspace
 0001:0001C96C      _isupper
 0001:0001C998      _iswalnum
 0001:0001C9C4      _iswalpha
 0001:0001C9B0      _iswascii
 0001:0001C9DC      _iswcntrl
 0001:0001C9F0      _iswdigit
 0001:0001CA04      _iswgraph
 0001:0001CA1C      _iswlower
 0001:0001CA30      _iswprint
 0001:0001CA48      _iswpunct
 0001:0001CA5C      _iswspace
 0001:0001CA70      _iswupper
 0001:0001CA84      _iswxdigit
 0001:0001C980      _isxdigit
 0001:00016677      _iter_copy
 0001:000165A4      _iter_copy2
 0001:000164A6      _iter_dump
 0001:00016372      _iter_free
 0001:00016893      _iter_gen_nonsym
 0001:000169BB      _iter_gen_nonsym_posdef
 0001:00016753      _iter_gen_sym
 0001:00016286      _iter_get
 0001:000163E3      _iter_resize
 0001:00016204      _iter_std_info
 0001:0001624C      _iter_std_stop_crit
 0001:0001F2D8      _itoa
 0001:0000A27D      _iv_add
 0001:0000A179      _iv_copy
 0001:0000A711      _iv_dump
 0001:0000A46D      _iv_finput
 0001:0000A3C3      _iv_foutput
 0001:0000A009      _iv_free
 0001:00006556      _iv_free_vars
 0001:00009F40      _iv_get
 0001:000063D8      _iv_get_vars
 0001:0000A1CD      _iv_move
 0001:0000A09E      _iv_resize
 0001:00006489      _iv_resize_vars
 0001:0000A7D3      _iv_sort
 0001:0000A320      _iv_sub
 0001:00008FE5      _iv_zero
 0001:0002170E      _longjmp
 0001:0001ECA8      _ltoa
 0001:00007408      _m_add
 0001:00005723      _m_dump
 0001:00004AF9      _m_finput
 0001:000054A3      _m_foutput
 0001:00005CFE      _m_free
 0001:000065D6      _m_free_vars
 0001:000059E4      _m_get
 0001:00006402      _m_get_vars
 0001:0000907B      _m_ident
 0001:0000B8BD      _m_inverse
 0001:00009CB8      _m_load
 0001:000075A2      _m_mlt
 0001:0000405F      _m_move
 0001:0000F49D      _m_norm1
 0001:0000F5E3      _m_norm_frob
 0001:0000F540      _m_norm_inf
 0001:0000936B      _m_ones
 0001:000092DC      _m_rand
 0001:00005ED3      _m_resize
 0001:000064B7      _m_resize_vars
 0001:00009AB0      _m_save
 0001:000074D5      _m_sub
 0001:00007B83      _m_transp
 0001:0000A9C0      _m_version
 0001:00009020      _m_zero
 0001:0000020E      _main
 0001:0000F99B      _makeH
 0001:0000F7E2      _makeHQ
 0001:0000D426      _makeQ
 0001:0000D63A      _makeR
 0001:00017970      _malloc
 0001:00012763      _mat2band
 0001:0001E5D8      _mblen
 0001:0001E79C      _mbstowcs
 0001:0001E654      _mbtowc
 0001:0000AA24      _mem_attach_list
 0001:0000ADE4      _mem_bytes_list
 0002:00003710      _mem_connect
 0001:0000AB4D      _mem_dump_list
 0001:0000AABA      _mem_free_vars
 0001:0000AC2F      _mem_info_bytes
 0001:0000ACDC      _mem_info_file
 0001:0000AC25      _mem_info_is_on
 0001:0000AC85      _mem_info_numvar
 0001:0000AC12      _mem_info_on
 0001:0000AB04      _mem_is_list_attached
 0001:0000AEDA      _mem_numvar_list
 0001:0000B37A      _mem_stat_dump
 0001:0000B213      _mem_stat_free_list
 0001:0000B1E0      _mem_stat_mark
 0001:0000B113      _mem_stat_reg_list
 0001:0000B476      _mem_stat_reg_vars
 0001:0000B46C      _mem_stat_show_mark
 0001:000186CC      _memchr
 0001:000189A8      _memcmp
 0001:000186EC      _memcpy
 0001:00018710      _memmove
 0001:0001875C      _memset
 0001:000076D2      _mmtr_mlt
 0001:00009115      _mrand
 0001:000091A4      _mrandlist
 0001:00007E96      _ms_mltadd
 0001:000077DD      _mtrm_mlt
 0001:0000790D      _mv_mlt
 0001:0000801A      _mv_mltadd
 0001:0000425C      _mv_move
 0002:0000017C      _name
 0001:0001AE40      _printf
 0001:00008912      _px_cols
 0001:00003FFD      _px_copy
 0001:00005873      _px_dump
 0001:00004ED4      _px_finput
 0001:000055B9      _px_foutput
 0001:00005DAF      _px_free
 0001:00006596      _px_free_vars
 0001:00005B4C      _px_get
 0001:00006431      _px_get_vars
 0001:000090DA      _px_ident
 0001:00008328      _px_inv
 0001:000083B9      _px_mlt
 0001:000001AD      _px_rand
 0001:000061C1      _px_resize
 0001:000064E8      _px_resize_vars
 0001:00008A49      _px_rows
 0001:000088A9      _px_sign
 0001:000087BC      _px_transp
 0001:000084AB      _px_vec
 0001:0000869A      _pxinv_vec
 0001:00021BB8      _raise
 0001:0001F444      _rand
 0001:00017990      _realloc
 0003:00000008      _restart
 0001:0000ED42      _rot_cols
 0001:0000EC68      _rot_rows
 0001:0000EBB0      _rot_vec
 0001:000103C4      _schur
 0001:000045F1      _set_err_flag
 0001:0001B8C8      _setbuf
 0001:00005484      _setformat
 0001:000216D8      _setjmp
 0001:0001B8F0      _setvbuf
 0001:00021B58      _signal
 0001:00004A9C      _skipjunk
 0001:000079E9      _sm_mlt
 0001:00009247      _smrand
 0001:0001432E      _sp_add
 0001:00014137      _sp_col_access
 0001:00014EC4      _sp_compact
 0001:00013ECE      _sp_copy
 0001:000149E3      _sp_copy2
 0001:00014217      _sp_diag_access
 0001:00013D78      _sp_free
 0001:00015017      _sp_free_vars
 0001:00013B6F      _sp_get
 0001:000136E0      _sp_get_val
 0001:00014FB4      _sp_get_vars
 0001:00014275      _sp_m2dense
 0001:000146E4      _sp_mltadd
 0001:00013940      _sp_mv_mlt
 0001:00014C1B      _sp_resize
 0001:00014FE6      _sp_resize_vars
 0001:00013770      _sp_set_val
 0001:000148CB      _sp_smlt
 0001:00014509      _sp_sub
 0001:00013A4F      _sp_vm_mlt
 0001:00014974      _sp_zero
 0001:00015AD1      _sprow_add
 0001:00015741      _sprow_copy
 0001:00015058      _sprow_dump
 0001:0001600E      _sprow_foutput
 0001:0001556E      _sprow_free
 0001:00015187      _sprow_get
 0001:00015111      _sprow_idx
 0001:000155E3      _sprow_merge
 0001:000158B2      _sprow_mltadd
 0001:0001542E      _sprow_resize
 0001:00016074      _sprow_set_val
 0001:00015F0B      _sprow_smlt
 0001:00015CF0      _sprow_sub
 0001:00015264      _sprow_xpd
 0001:0000BE94      _sqr
 0001:000204A0      _sqrt
 0001:0000F268      _square
 0001:0001F41C      _srand
 0001:0001B96C      _sscanf
 0001:00018800      _strcat
 0001:0001883C      _strchr
 0001:00018890      _strcmp
 0001:00018A14      _strdup
 0001:000188DC      _strlen
 0001:00018938      _strncat
 0001:00018A48      _strstr
 0001:00008DCB      _sub_mat
 0001:00008EEF      _sub_vec
 0001:000066A0      _sv_mlt
 0001:00011F34      _svd
 0001:00007DA6      _swap_cols
 0001:00007CB5      _swap_rows
 0001:0000FFCC      _symmeig
 0003:00000000      _test_err
 0001:0000FA3C      _trieig
 0001:0001F308      _ultoa
 0001:0001BACC      _ungetc
 0001:00006738      _v_add
 0001:0000725B      _v_conv
 0001:000093C2      _v_count
 0001:000058FF      _v_dump
 0001:000051E2      _v_finput
 0001:00005653      _v_foutput
 0001:00005E41      _v_free
 0001:00006516      _v_free_vars
 0001:00005C28      _v_get
 0001:000063AE      _v_get_vars
 0001:00006B5C      _v_lincomb
 0001:00006C63      _v_linlist
 0001:00006A3F      _v_map
 0001:00006F63      _v_max
 0001:00006EBD      _v_min
 0001:000067BB      _v_mltadd
 0001:000041AC      _v_move
 0001:00009325      _v_ones
 0001:00007328      _v_pconv
 0001:000092A4      _v_rand
 0001:000062B3      _v_resize
 0001:0000645B      _v_resize_vars
 0001:00009B6B      _v_save
 0001:00006DF1      _v_slash
 0001:00007009      _v_sort
 0001:00006D6B      _v_star
 0001:000069B7      _v_sub
 0001:0000720B      _v_sum
 0001:00008FB0      _v_zero
 0001:00017828      _virt_alloc
 0001:00017850      _virt_commit
 0001:0001789C      _virt_decommit
 0001:000178B4      _virt_release
 0001:000177BC      _virt_reserve
 0001:00007A7F      _vm_mlt
 0001:0000819E      _vm_mltadd
 0001:0000435A      _vm_move
 0001:0001B990      _vsscanf
 0001:00018AEC      _wcscpy
 0001:00018AD4      _wcslen
 0001:0001E904      _wcstombs
 0001:0001E728      _wctomb
 0001:00017114      _zm_free
 0001:0001772D      _zm_free_vars
 0001:00016EDB      _zm_get
 0001:0001765F      _zm_get_vars
 0001:00017257      _zm_resize
 0001:000176BC      _zm_resize_vars
 0001:00016E95      _zm_zero
 0001:000171C5      _zv_free
 0001:000176ED      _zv_free_vars
 0001:00017041      _zv_get
 0001:00017635      _zv_get_vars
 0001:0001753A      _zv_resize
 0001:0001768E      _zv_resize_vars
 0001:00016E60      _zv_zero
 0003:00000028      b11_2
 0003:000027BC      b1538_2
 0003:000028C4      b1674_2
 0003:000029C4      b1690_2
 0003:000029E0      b1702_2
 0003:000029E4      b1783_2
 0003:000029F0      b1785_2
 0003:000029F4      b1787_2
 0003:000029F8      b1859_2
 0003:00002A08      b1881_1
 0003:00002A48      b1977_2
 0003:0000007C      b23_2
 0003:00000000      b2_2
 0003:000021DC      b319_2
 0003:0000015C      b31_2
 0003:000001B0      b35_2
 0003:00000200      b37_2
 0003:000021F4      b632_2
 0003:00002604      b636_2
 0003:0000260C      b642_2
 0003:000021D0      b71_2
 0003:00002614      b832_1
 0003:000027A4      b908_2
 0003:000027A8      b914_1
 0003:000027AC      b932_2
 0003:00000008      b9_2
 0001:0001B940      c1000_0
 0001:0001B9B4      c1008_0
 0001:0001BA70      c1008_1
 0001:0001BACC      c1020_0
 0001:0001BB1C      c1024_0
 0001:0001BB38      c1036_0
 0001:0001C524      c1112_0
 0001:0001C554      c1114_0
 0001:0001C57C      c1120_0
 0001:0001C840      c1128_0
 0001:0001C894      c1136_0
 0001:0001C998      c1138_0
 0001:0001CA9C      c1140_0
 0001:0001CAE0      c1142_0
 0001:0001CB38      c1144_0
 0001:0001D0C8      c1144_2
 0001:0001D0CC      c1144_3
 0001:0001DCB8      c1148_0
 0001:0001E4C8      c1150_0
 0001:0001E560      c1168_0
 0001:0001E584      c1180_0
 0001:0001E5D8      c1188_0
 0001:00004A9C      c11_0
 0001:0001EAA8      c1238_0
 0001:0001ECA8      c1268_0
 0001:0001ECB0      c1272_0
 0001:0001ED60      c1278_0
 0001:0001EEE8      c1302_0
 0001:0001EF60      c1314_0
 0001:0001EF74      c1328_0
 0001:0001EFA4      c1330_0
 0001:0001EFBC      c1334_0
 0001:0001EFD4      c1336_0
 0001:0001EFEC      c1358_0
 0001:0001EFFC      c1376_0
 0001:0001F014      c1384_0
 0001:0001F044      c1386_0
 0001:0001F068      c1388_0
 0001:000059E4      c13_0
 0001:0001F07C      c1404_0
 0001:0001F130      c1414_0
 0001:0001F248      c1424_0
 0001:0001F2D8      c1432_0
 0001:0001F350      c1436_0
 0001:0001F37C      c1438_0
 0001:0001F3AC      c1440_0
 0001:0001F3C4      c1462_0
 0001:0001F3EC      c1464_0
 0001:0001F41C      c1466_0
 0001:0001F438      c1466_2
 0001:0001F4AC      c1468_0
 0001:0001F7A8      c1470_0
 0001:0001FADC      c1478_0
 0001:0001FFC0      c1480_0
 0001:000204A0      c1490_0
 0001:000204DC      c1524_0
 0001:000207B0      c1526_0
 0001:00020AA4      c1538_0
 0001:00020BD0      c1538_3
 0001:00020BE0      c1560_0
 0001:00006618      c15_0
 0001:00020BFC      c1622_0
 0001:00020C54      c1674_0
 0001:00020CFC      c1690_0
 0001:00020DB4      c1694_0
 0001:00020F50      c1702_0
 0001:00020F50      c1702_3
 0001:00020FDC      c1721_0
 0001:00021000      c1759_0
 0001:000210A8      c1767_0
 0001:000210C4      c1769_0
 0001:000210D8      c1771_0
 0001:000210EC      c1777_0
 0001:00021114      c1783_0
 0001:00021114      c1783_3
 0001:0002119C      c1783_4
 0001:00021280      c1785_0
 0001:00021468      c1787_0
 0001:00007408      c17_0
 0001:00021690      c1845_0
 0001:00021690      c1845_2
 0001:000216C8      c1845_3
 0001:000216D8      c1849_0
 0001:00021790      c1859_0
 0001:00021910      c1859_3
 0001:00021790      c1859_4
 0001:00021930      c1863_0
 0001:00021C28      c1883_0
 0001:00021D80      c1885_0
 0001:00021F24      c1899_0
 0001:00021F74      c1977_0
 0001:00021F74      c1977_3
 0001:00008328      c19_0
 0001:00000000      c1_0
 0001:00008B80      c21_0
 0001:00008FB0      c23_0
 0001:00009408      c27_0
 0001:00017770      c287_0
 0001:0001779C      c289_0
 0001:000177AC      c291_0
 0001:00009AB0      c29_0
 0001:00000150      c2_0
 0001:000177BC      c317_0
 0001:000178D0      c319_0
 0001:00009F40      c31_0
 0001:00017970      c325_0
 0001:00017990      c327_0
 0001:000179A8      c329_0
 0001:00017A44      c329_2
 0001:00017A60      c331_0
 0001:00017A64      c335_0
 0001:0000A9C0      c33_0
 0001:00018430      c355_0
 0001:000186C4      c357_0
 0001:0000AA24      c35_0
 0001:000186C8      c361_0
 0001:0000AFA4      c37_0
 0001:0000B4A8      c39_0
 0001:0000BE94      c41_0
 0001:0000C8B0      c43_0
 0001:0000CE4C      c45_0
 0001:0000DFA4      c47_0
 0001:0000E708      c49_0
 0001:000186CC      c500_0
 0001:000186EC      c504_0
 0001:00018710      c508_0
 0001:0001875C      c510_0
 0001:000187E8      c512_0
 0001:0000EB44      c51_0
 0001:00018800      c526_0
 0001:0001883C      c528_0
 0001:00018890      c530_0
 0001:000188DC      c534_0
 0001:00018938      c536_0
 0001:0000EE20      c53_0
 0001:000189A8      c552_0
 0001:00018A14      c558_0
 0001:0000F174      c55_0
 0001:0000F674      c57_0
 0001:00018A48      c580_0
 0001:00018A9C      c584_0
 0001:00018AD4      c586_0
 0001:00018AEC      c588_0
 0001:0000FA3C      c59_0
 0001:00010194      c61_0
 0001:00018B2C      c628_0
 0001:00018B9C      c632_0
 0001:00018CF3      c632_3
 0001:00019390      c636_0
 0001:00019390      c636_4
 0001:000194DC      c638_0
 0001:00011174      c63_0
 0001:000194E8      c642_0
 0001:00019624      c642_3
 0001:0001963C      c642_4
 0001:00019664      c646_0
 0001:000196AC      c648_0
 0001:000196D0      c652_0
 0001:0001970C      c654_0
 0001:0001976C      c660_0
 0001:000197F4      c664_0
 0001:0001983C      c666_0
 0001:000198B4      c668_0
 0001:00019AB0      c670_0
 0001:00019C4C      c676_0
 0001:00019D68      c678_0
 0001:00019D7C      c696_0
 0001:00019DB4      c698_0
 0001:00012158      c69_0
 0001:000136E0      c71_0
 0001:00019DD4      c720_0
 0001:00015058      c73_0
 0001:00019E38      c752_0
 0001:00019E9C      c754_0
 0001:00019EA4      c756_0
 0001:00003EDC      c7_0
 0001:00019F24      c810_0
 0001:00019FB4      c818_0
 0001:0001A034      c824_0
 0001:0001A164      c840_0
 0001:0001A1C0      c844_0
 0001:0001A1E4      c850_0
 0001:0001A3C4      c852_0
 0001:0001A3E8      c858_0
 0001:00016204      c85_0
 0001:0001A4C4      c868_0
 0001:0001A628      c872_0
 0001:0001A64C      c876_0
 0001:0001A78C      c886_0
 0001:0001A7C0      c906_0
 0001:0001AA7C      c908_0
 0001:0001AAF4      c912_0
 0001:0001AAFC      c914_0
 0001:00016ACC      c91_0
 0001:0001AC9C      c922_0
 0001:0001ADAC      c932_0
 0001:0001AE40      c942_0
 0001:0001AE64      c968_0
 0001:0001B69C      c976_0
 0001:00016E60      c97_0
 0001:0001B8C8      c980_0
 0001:0001B8F0      c986_0
 0001:00004484      c9_0
 0002:000065DC      d1036_1
 0002:00006654      d1116_0
 0002:00006858      d1118_1
 0002:00006894      d1120_1
 0002:000068E4      d1122_0
 0002:000069E4      d1144_1
 0002:00006AFC      d1146_0
 0002:00006D5C      d1148_1
 0002:00002458      d11_1
 0002:00006DC4      d1272_1
 0002:00006DD4      d1278_1
 0002:00006E94      d1334_1
 0002:00006EFC      d1336_1
 0002:00006F64      d1338_0
 0002:00006F68      d1392_0
 0002:0000287C      d13_1
 0002:00006FE4      d1402_0
 0002:00006FEC      d1440_1
 0002:00006FF4      d1444_0
 0002:00007038      d1466_1
 0002:00007040      d1468_1
 0002:00007054      d1470_1
 0002:0000707C      d1478_1
 0002:000070A4      d1480_1
 0002:000070CC      d1490_1
 0002:000070DC      d1538_1
 0002:000029C8      d15_1
 0002:00007124      d1674_1
 0002:00007148      d1690_1
 0002:0000716C      d1692_1
 0002:00007170      d1694_1
 0002:00007180      d1702_1
 0002:000071A8      d1721_1
 0002:000071C8      d1723_0
 0002:000071CC      d1759_1
 0002:000071D8      d1779_0
 0002:000071E0      d1781_0
 0002:000071E8      d1783_1
 0002:0000723C      d1785_1
 0002:00007264      d1787_1
 0002:00002C10      d17_1
 0002:00007288      d1841_0
 0002:0000728C      d1843_0
 0002:00007290      d1845_1
 0002:000072B0      d1849_1
 0002:000072B4      d1859_1
 0002:00007308      d1863_1
 0002:00007368      d1881_0
 0002:0000736C      d1883_1
 0002:00007370      d1977_1
 0002:00002EA4      d19_1
 0002:00000098      d1_1
 0002:00003020      d21_1
 0002:00003144      d23_1
 0002:00003224      d29_1
 0002:0000013C      d2_1
 0002:000054C0      d317_1
 0002:000054C4      d319_1
 0002:000032FC      d31_1
 0002:0000555C      d329_1
 0002:0000557C      d335_1
 0002:0000351C      d33_1
 0002:0000368C      d35_1
 0002:00003A74      d37_1
 0002:00003C58      d39_1
 0002:00003DC8      d41_1
 0002:00003EA4      d43_1
 0002:00003FF8      d45_1
 0002:000041D0      d47_1
 0002:000042E8      d49_1
 0002:000043C8      d51_1
 0002:00004464      d53_1
 0002:000044F4      d55_1
 0002:000045C0      d57_1
 0002:00004684      d59_1
 0002:00004720      d61_1
 0002:000055BC      d630_0
 0002:000055C0      d632_1
 0002:000058E0      d634_1
 0002:0000591C      d636_1
 0002:000047C8      d63_1
 0002:00005A00      d642_1
 0002:00005A14      d678_1
 0002:00004880      d69_1
 0002:00004A50      d71_1
 0002:00005A18      d732_1
 0002:00004DD0      d73_1
 0002:00005A1C      d758_0
 0002:00001C30      d7_1
 0002:00005A20      d830_0
 0002:00005ED0      d832_0
 0002:00005F9C      d842_0
 0002:00005FA0      d844_1
 0002:00005118      d85_1
 0002:00005FA4      d908_1
 0002:000060D0      d932_1
 0002:000060DC      d940_1
 0002:00006558      d968_1
 0002:0000538C      d97_1
 0002:00001D04      d9_1
 0001:000196C7      invokeHnd()
 0001:000196AC      jump()
 0001:0001779C      operator delete(void *)
 0001:000177AC      operator delete[](void *)
 0001:00019318      std::terminate()
 0001:00019368      std::unexpected()
 0004:00000000      t636_3

  Address         Publics by Value

 0001:00000000      __acrtused
 0001:00000000      c1_0
 0001:00000059      __GetExceptDLLinfo
 0001:0000005E      __isDLL
 0001:00000066      __getHInstance
 0001:00000140      Sysinit::__linkproc__ __fastcall GetTls()
 0001:00000140      ___System__GetTls
 0001:00000150      _cmp_perm
 0001:00000150      c2_0
 0001:000001AD      _px_rand
 0001:0000020E      _main
 0001:00003EDC      c7_0
 0001:00003EDC      __m_copy
 0001:00003F86      __v_copy
 0001:00003FFD      _px_copy
 0001:0000405F      _m_move
 0001:000041AC      _v_move
 0001:0000425C      _mv_move
 0001:0000435A      _vm_move
 0001:00004484      _err_list_attach
 0001:00004484      c9_0
 0001:00004571      _err_list_free
 0001:000045C0      _err_is_list_attached
 0001:000045F1      _set_err_flag
 0001:00004604      _count_errs
 0001:00004617      _ev_err
 0001:00004A85      _catch_FPE
 0001:00004A9C      c11_0
 0001:00004A9C      _skipjunk
 0001:00004AF9      _m_finput
 0001:00004B2D      _im_finput
 0001:00004D84      _bm_finput
 0001:00004ED4      _px_finput
 0001:00004F08      _ipx_finput
 0001:000050A2      _bpx_finput
 0001:000051E2      _v_finput
 0001:00005216      _ifin_vec
 0001:000053A7      _bfin_vec
 0001:00005484      _setformat
 0001:000054A3      _m_foutput
 0001:000055B9      _px_foutput
 0001:00005653      _v_foutput
 0001:00005723      _m_dump
 0001:00005873      _px_dump
 0001:000058FF      _v_dump
 0001:000059E4      _m_get
 0001:000059E4      c13_0
 0001:00005B4C      _px_get
 0001:00005C28      _v_get
 0001:00005CFE      _m_free
 0001:00005DAF      _px_free
 0001:00005E41      _v_free
 0001:00005ED3      _m_resize
 0001:000061C1      _px_resize
 0001:000062B3      _v_resize
 0001:000063AE      _v_get_vars
 0001:000063D8      _iv_get_vars
 0001:00006402      _m_get_vars
 0001:00006431      _px_get_vars
 0001:0000645B      _v_resize_vars
 0001:00006489      _iv_resize_vars
 0001:000064B7      _m_resize_vars
 0001:000064E8      _px_resize_vars
 0001:00006516      _v_free_vars
 0001:00006556      _iv_free_vars
 0001:00006596      _px_free_vars
 0001:000065D6      _m_free_vars
 0001:00006618      __in_prod
 0001:00006618      c15_0
 0001:000066A0      _sv_mlt
 0001:00006738      _v_add
 0001:000067BB      _v_mltadd
 0001:000069B7      _v_sub
 0001:00006A3F      _v_map
 0001:00006ACC      __v_map
 0001:00006B5C      _v_lincomb
 0001:00006C63      _v_linlist
 0001:00006D6B      _v_star
 0001:00006DF1      _v_slash
 0001:00006EBD      _v_min
 0001:00006F63      _v_max
 0001:00007009      _v_sort
 0001:0000720B      _v_sum
 0001:0000725B      _v_conv
 0001:00007328      _v_pconv
 0001:00007408      c17_0
 0001:00007408      _m_add
 0001:000074D5      _m_sub
 0001:000075A2      _m_mlt
 0001:000076D2      _mmtr_mlt
 0001:000077DD      _mtrm_mlt
 0001:0000790D      _mv_mlt
 0001:000079E9      _sm_mlt
 0001:00007A7F      _vm_mlt
 0001:00007B83      _m_transp
 0001:00007CB5      _swap_rows
 0001:00007DA6      _swap_cols
 0001:00007E96      _ms_mltadd
 0001:0000801A      _mv_mltadd
 0001:0000819E      _vm_mltadd
 0001:00008328      c19_0
 0001:00008328      _px_inv
 0001:000083B9      _px_mlt
 0001:000084AB      _px_vec
 0001:0000869A      _pxinv_vec
 0001:000087BC      _px_transp
 0001:000088A9      _px_sign
 0001:00008912      _px_cols
 0001:00008A49      _px_rows
 0001:00008B80      c21_0
 0001:00008B80      _get_col
 0001:00008C10      _get_row
 0001:00008CA1      __set_col
 0001:00008D36      __set_row
 0001:00008DCB      _sub_mat
 0001:00008EEF      _sub_vec
 0001:00008FB0      _v_zero
 0001:00008FB0      c23_0
 0001:00008FE5      _iv_zero
 0001:00009020      _m_zero
 0001:0000907B      _m_ident
 0001:000090DA      _px_ident
 0001:00009115      _mrand
 0001:000091A4      _mrandlist
 0001:00009247      _smrand
 0001:000092A4      _v_rand
 0001:000092DC      _m_rand
 0001:00009325      _v_ones
 0001:0000936B      _m_ones
 0001:000093C2      _v_count
 0001:00009408      ___ip__
 0001:00009408      c27_0
 0001:00009508      ___mltadd__
 0001:000095D8      ___smlt__
 0001:00009600      ___add__
 0001:0000962F      ___sub__
 0001:0000965E      ___zero__
 0001:00009677      ___ip4__
 0001:0000985F      ___lc4__
 0001:00009A0E      ___ma4__
 0001:00009AB0      c29_0
 0001:00009AB0      _m_save
 0001:00009B6B      _v_save
 0001:00009C1A      _d_save
 0001:00009CB8      _m_load
 0001:00009F40      c31_0
 0001:00009F40      _iv_get
 0001:0000A009      _iv_free
 0001:0000A09E      _iv_resize
 0001:0000A179      _iv_copy
 0001:0000A1CD      _iv_move
 0001:0000A27D      _iv_add
 0001:0000A320      _iv_sub
 0001:0000A3C3      _iv_foutput
 0001:0000A46D      _iv_finput
 0001:0000A4A1      _iiv_finput
 0001:0000A62B      _biv_finput
 0001:0000A711      _iv_dump
 0001:0000A7D3      _iv_sort
 0001:0000A9C0      _m_version
 0001:0000A9C0      c33_0
 0001:0000AA24      _mem_attach_list
 0001:0000AA24      c35_0
 0001:0000AABA      _mem_free_vars
 0001:0000AB04      _mem_is_list_attached
 0001:0000AB4D      _mem_dump_list
 0001:0000AC12      _mem_info_on
 0001:0000AC25      _mem_info_is_on
 0001:0000AC2F      _mem_info_bytes
 0001:0000AC85      _mem_info_numvar
 0001:0000ACDC      _mem_info_file
 0001:0000ADE4      _mem_bytes_list
 0001:0000AEDA      _mem_numvar_list
 0001:0000AFA4      c37_0
 0001:0000B113      _mem_stat_reg_list
 0001:0000B1E0      _mem_stat_mark
 0001:0000B213      _mem_stat_free_list
 0001:0000B37A      _mem_stat_dump
 0001:0000B46C      _mem_stat_show_mark
 0001:0000B476      _mem_stat_reg_vars
 0001:0000B4A8      c39_0
 0001:0000B4A8      _LUfactor
 0001:0000B76C      _LUsolve
 0001:0000B814      _LUTsolve
 0001:0000B8BD      _m_inverse
 0001:0000BB5A      _LUcondest
 0001:0000BE94      _sqr
 0001:0000BE94      c41_0
 0001:0000C025      _BKPfactor
 0001:0000C4ED      _BKPsolve
 0001:0000C8B0      c43_0
 0001:0000C8B0      _CHfactor
 0001:0000CA18      _CHsolve
 0001:0000CAA3      _LDLfactor
 0001:0000CC07      _LDLsolve
 0001:0000CCC3      _MCHfactor
 0001:0000CE4C      c45_0
 0001:0000CE4C      _QRfactor
 0001:0000CF59      _QRCPfactor
 0001:0000D28E      __Qsolve
 0001:0000D426      _makeQ
 0001:0000D63A      _makeR
 0001:0000D6A9      _QRsolve
 0001:0000D793      _QRCPsolve
 0001:0000D9C4      _QRTsolve
 0001:0000DC24      _QRcondest
 0001:0000DFA4      _Usolve
 0001:0000DFA4      c47_0
 0001:0000E118      _Lsolve
 0001:0000E29C      _UTsolve
 0001:0000E488      _Dsolve
 0001:0000E56C      _LTsolve
 0001:0000E708      c49_0
 0001:0000E708      _hhvec
 0001:0000E7C8      _hhtrvec
 0001:0000E893      _hhtrrows
 0001:0000E9B7      _hhtrcols
 0001:0000EB44      c51_0
 0001:0000EB44      _givens
 0001:0000EBB0      _rot_vec
 0001:0000EC68      _rot_rows
 0001:0000ED42      _rot_cols
 0001:0000EE20      _LDLupdate
 0001:0000EE20      c53_0
 0001:0000EF74      _QRupdate
 0001:0000F174      c55_0
 0001:0000F174      __v_norm1
 0001:0000F268      _square
 0001:0000F273      _cube
 0001:0000F281      __v_norm2
 0001:0000F381      __v_norm_inf
 0001:0000F49D      _m_norm1
 0001:0000F540      _m_norm_inf
 0001:0000F5E3      _m_norm_frob
 0001:0000F674      _Hfactor
 0001:0000F674      c57_0
 0001:0000F7E2      _makeHQ
 0001:0000F99B      _makeH
 0001:0000FA3C      _trieig
 0001:0000FA3C      c59_0
 0001:0000FFCC      _symmeig
 0001:00010194      c61_0
 0001:000103C4      _schur
 0001:00011174      c63_0
 0001:00011514      _bisvd
 0001:00011C1C      _bifactor
 0001:00011F34      _svd
 0001:00012158      _bd_get
 0001:00012158      c69_0
 0001:00012228      _bd_free
 0001:00012288      _bd_resize
 0001:000124FB      _bd_copy
 0001:0001265C      _band2mat
 0001:00012763      _mat2band
 0001:000128A9      _bd_transp
 0001:00012D7D      _bdLUfactor
 0001:00012FE2      _bdLUsolve
 0001:000131D4      _bdLDLfactor
 0001:000133AC      _bdLDLsolve
 0001:0001355F      _bd_mv_mlt
 0001:000136E0      _sp_get_val
 0001:000136E0      c71_0
 0001:00013770      _sp_set_val
 0001:00013940      _sp_mv_mlt
 0001:00013A4F      _sp_vm_mlt
 0001:00013B6F      _sp_get
 0001:00013D78      _sp_free
 0001:00013ECE      _sp_copy
 0001:00014137      _sp_col_access
 0001:00014217      _sp_diag_access
 0001:00014275      _sp_m2dense
 0001:0001432E      _sp_add
 0001:00014509      _sp_sub
 0001:000146E4      _sp_mltadd
 0001:000148CB      _sp_smlt
 0001:00014974      _sp_zero
 0001:000149E3      _sp_copy2
 0001:00014C1B      _sp_resize
 0001:00014EC4      _sp_compact
 0001:00014FB4      _sp_get_vars
 0001:00014FE6      _sp_resize_vars
 0001:00015017      _sp_free_vars
 0001:00015058      _sprow_dump
 0001:00015058      c73_0
 0001:00015111      _sprow_idx
 0001:00015187      _sprow_get
 0001:00015264      _sprow_xpd
 0001:0001542E      _sprow_resize
 0001:0001556E      _sprow_free
 0001:000155E3      _sprow_merge
 0001:00015741      _sprow_copy
 0001:000158B2      _sprow_mltadd
 0001:00015AD1      _sprow_add
 0001:00015CF0      _sprow_sub
 0001:00015F0B      _sprow_smlt
 0001:0001600E      _sprow_foutput
 0001:00016074      _sprow_set_val
 0001:00016204      c85_0
 0001:00016204      _iter_std_info
 0001:0001624C      _iter_std_stop_crit
 0001:00016286      _iter_get
 0001:00016372      _iter_free
 0001:000163E3      _iter_resize
 0001:000164A6      _iter_dump
 0001:000165A4      _iter_copy2
 0001:00016677      _iter_copy
 0001:00016753      _iter_gen_sym
 0001:00016893      _iter_gen_nonsym
 0001:000169BB      _iter_gen_nonsym_posdef
 0001:00016ACC      ___zconj__
 0001:00016ACC      c91_0
 0001:00016AF8      ___zip__
 0001:00016C04      ___zmltadd__
 0001:00016D1C      ___zmlt__
 0001:00016D9D      ___zadd__
 0001:00016DF1      ___zsub__
 0001:00016E45      ___zzero__
 0001:00016E60      _zv_zero
 0001:00016E60      c97_0
 0001:00016E95      _zm_zero
 0001:00016EDB      _zm_get
 0001:00017041      _zv_get
 0001:00017114      _zm_free
 0001:000171C5      _zv_free
 0001:00017257      _zm_resize
 0001:0001753A      _zv_resize
 0001:00017635      _zv_get_vars
 0001:0001765F      _zm_get_vars
 0001:0001768E      _zv_resize_vars
 0001:000176BC      _zm_resize_vars
 0001:000176ED      _zv_free_vars
 0001:0001772D      _zm_free_vars
 0001:00017770      _calloc
 0001:00017770      c287_0
 0001:00017770      ___org_calloc
 0001:0001779C      c289_0
 0001:0001779C      ___org_delete
 0001:0001779C      operator delete(void *)
 0001:000177AC      operator delete[](void *)
 0001:000177AC      ___org_deletea
 0001:000177AC      c291_0
 0001:000177BC      _virt_reserve
 0001:000177BC      c317_0
 0001:00017828      _virt_alloc
 0001:00017850      _virt_commit
 0001:0001789C      _virt_decommit
 0001:000178B4      _virt_release
 0001:000178D0      c319_0
 0001:000178F0      ___CRTL_MEM_GetBorMemPtrs
 0001:0001796C      ___CRTL_MEM_CheckBorMem
 0001:00017970      c325_0
 0001:00017970      _malloc
 0001:00017970      ___org_malloc
 0001:00017980      _free
 0001:00017980      ___org_free
 0001:00017990      _realloc
 0001:00017990      c327_0
 0001:00017990      ___org_realloc
 0001:000179A8      ___CRTL_MEM_Revector
 0001:000179A8      c329_0
 0001:00017A44      c329_2
 0001:00017A50      __free_heaps
 0001:00017A60      ___CRTL_MEM_UseBorMM
 0001:00017A60      c331_0
 0001:00017A64      c335_0
 0001:00018048      __internal_free
 0001:000181B8      __internal_malloc
 0001:000183B8      __phys_avail
 0001:000183D0      __internal_free_heaps
 0001:00018430      c355_0
 0001:00018430      __expand
 0001:00018430      ___org__expand
 0001:00018610      __internal_realloc
 0001:000186A8      ___org__msize
 0001:000186A8      __msize
 0001:000186C4      ___CRTL_VCL_Init
 0001:000186C4      c357_0
 0001:000186C8      ___CRTL_VCLLIB_Linkage
 0001:000186C8      c361_0
 0001:000186CC      _memchr
 0001:000186CC      c500_0
 0001:000186CC      ___org_memchr
 0001:000186EC      ___org_memcpy
 0001:000186EC      _memcpy
 0001:000186EC      c504_0
 0001:00018710      c508_0
 0001:00018710      ___org_memmove
 0001:00018710      _memmove
 0001:0001875C      ___org_memset
 0001:0001875C      _memset
 0001:0001875C      c510_0
 0001:000187E8      c512_0
 0001:000187E8      __wmemset
 0001:00018800      _strcat
 0001:00018800      ___org_strcat
 0001:00018800      c526_0
 0001:0001883C      _strchr
 0001:0001883C      c528_0
 0001:0001883C      ___org_strchr
 0001:00018890      c530_0
 0001:00018890      ___org_strcmp
 0001:00018890      _strcmp
 0001:000188DC      _strlen
 0001:000188DC      c534_0
 0001:000188DC      ___org_strlen
 0001:00018938      c536_0
 0001:00018938      _strncat
 0001:00018938      ___org_strncat
 0001:000189A8      _memcmp
 0001:000189A8      ___org_memcmp
 0001:000189A8      c552_0
 0001:00018A14      c558_0
 0001:00018A14      _strdup
 0001:00018A14      ___org_strdup
 0001:00018A48      c580_0
 0001:00018A48      _strstr
 0001:00018A48      ___org_strstr
 0001:00018A9C      __stpcpy
 0001:00018A9C      c584_0
 0001:00018AD4      c586_0
 0001:00018AD4      _wcslen
 0001:00018AEC      c588_0
 0001:00018AEC      _wcscpy
 0001:00018B2C      c628_0
 0001:00018B2C      __InitExceptBlockLDTC
 0001:00018B65      __ExitExceptBlock
 0001:00018B73      __ExceptionHandler
 0001:00018B9C      c632_0
 0001:00018CF3      c632_3
 0001:00019050      __typeIDname(tpid *)
 0001:00019088      __isSameTypeID(tpid *, tpid *)
 0001:00019164      __isCompatTypeID(tpid *, tpid *, int, tpid * *)
 0001:00019274      __adjustClassAdr(void *, tpid *, tpid *)
 0001:000192F0      _InitTermAndUnexPtrs()
 0001:00019318      std::terminate()
 0001:00019368      std::unexpected()
 0001:00019390      c636_0
 0001:00019390      c636_4
 0001:000193BC      ___call_terminate
 0001:00019430      ___call_unexpected
 0001:00019468      __ExceptInit
 0001:000194B4      __GetExceptDLLinfoInternal
 0001:000194DC      ___DefHandler
 0001:000194DC      c638_0
 0001:000194E8      c642_0
 0001:000195D8      __setexc
 0001:000195F4      __unsetexc
 0001:00019604      __SetUserHandler
 0001:00019618      __unsetuserhandler
 0001:00019624      __init_except
 0001:00019624      c642_3
 0001:0001963C      c642_4
 0001:0001963C      __exit_except
 0001:00019650      __InitDefaultHander
 0001:00019664      __SetExceptionHandler
 0001:00019664      c646_0
 0001:00019679      __UnsetExceptionHandler
 0001:000196A5      __UnwindException
 0001:000196AC      jump()
 0001:000196AC      c648_0
 0001:000196B2      ___doGlobalUnwind
 0001:000196C7      invokeHnd()
 0001:000196D0      c652_0
 0001:000196D0      ___access
 0001:0001970C      ___close
 0001:0001970C      c654_0
 0001:0001976C      ___eof
 0001:0001976C      c660_0
 0001:000197F4      ___isatty
 0001:000197F4      c664_0
 0001:00019824      ___isatty_osfhandle
 0001:0001983C      ___lseek
 0001:0001983C      c666_0
 0001:000198B4      ___open
 0001:000198B4      c668_0
 0001:00019AB0      c670_0
 0001:00019B1C      ___read
 0001:00019C4C      c676_0
 0001:00019C4C      ___write
 0001:00019D68      c678_0
 0001:00019D7C      c696_0
 0001:00019D7C      __flushall
 0001:00019DB4      c698_0
 0001:00019DB4      ___org__fputc
 0001:00019DB4      __fputc
 0001:00019DD4      ___org__rtl_read
 0001:00019DD4      c720_0
 0001:00019DD4      __rtl_read
 0001:00019E1C      ___org__read
 0001:00019E1C      __read
 0001:00019E38      c752_0
 0001:00019E38      ___org__rtl_write
 0001:00019E38      __rtl_write
 0001:00019E80      __write
 0001:00019E80      ___org__write
 0001:00019E9C      _access
 0001:00019E9C      ___org_access
 0001:00019E9C      c754_0
 0001:00019EA4      __allocbuf
 0001:00019EA4      c756_0
 0001:00019F24      _fclose
 0001:00019F24      c810_0
 0001:00019F24      ___org_fclose
 0001:00019FB4      c818_0
 0001:00019FB4      ___org_fflush
 0001:00019FB4      _fflush
 0001:0001A034      _fgets
 0001:0001A034      c824_0
 0001:0001A034      ___org_fgets
 0001:0001A164      __flushout
 0001:0001A164      c840_0
 0001:0001A1C0      __initfmode
 0001:0001A1C0      c844_0
 0001:0001A1D0      __initfileinfo
 0001:0001A1E4      c850_0
 0001:0001A2C0      ___openfp
 0001:0001A36C      ___getfp
 0001:0001A398      _fopen
 0001:0001A398      ___org_fopen
 0001:0001A3C4      c852_0
 0001:0001A3C4      _fprintf
 0001:0001A3C4      ___org_fprintf
 0001:0001A3E8      c858_0
 0001:0001A3E8      ___fputn
 0001:0001A4C4      c868_0
 0001:0001A5F4      ___org_fread
 0001:0001A5F4      _fread
 0001:0001A628      ___org_fscanf
 0001:0001A628      c872_0
 0001:0001A628      _fscanf
 0001:0001A64C      c876_0
 0001:0001A6A8      ___org_fseek
 0001:0001A6A8      _fseek
 0001:0001A70C      _ftell
 0001:0001A70C      ___org_ftell
 0001:0001A78C      c886_0
 0001:0001A78C      ___org_fwrite
 0001:0001A78C      _fwrite
 0001:0001A7C0      __get_handle
 0001:0001A7C0      c906_0
 0001:0001A800      __dup_handle
 0001:0001A868      __free_handle
 0001:0001A920      __init_handles
 0001:0001AA7C      c908_0
 0001:0001AA7C      ___IOerror
 0001:0001AAC0      ___DOSerror
 0001:0001AAE0      ___NTerror
 0001:0001AAF4      _isatty
 0001:0001AAF4      ___org_isatty
 0001:0001AAF4      c912_0
 0001:0001AAFC      c914_0
 0001:0001AB9C      ___org__fgetc
 0001:0001AB9C      __fgetc
 0001:0001ABB4      ___org_fgetc
 0001:0001ABB4      _fgetc
 0001:0001AC9C      _fputc
 0001:0001AC9C      c922_0
 0001:0001AC9C      ___org_fputc
 0001:0001ADAC      ___mkname
 0001:0001ADAC      c932_0
 0001:0001ADFC      ___tmpnam
 0001:0001AE40      _printf
 0001:0001AE40      c942_0
 0001:0001AE40      ___org_printf
 0001:0001AE64      __scanner
 0001:0001AE64      c968_0
 0001:0001B69C      c976_0
 0001:0001B69C      ___scantoint64
 0001:0001B8C8      ___org_setbuf
 0001:0001B8C8      c980_0
 0001:0001B8C8      _setbuf
 0001:0001B8F0      _setvbuf
 0001:0001B8F0      c986_0
 0001:0001B8F0      ___org_setvbuf
 0001:0001B940      c1000_0
 0001:0001B96C      ___org_sscanf
 0001:0001B96C      _sscanf
 0001:0001B990      ___org_vsscanf
 0001:0001B990      _vsscanf
 0001:0001B9B4      c1008_0
 0001:0001B9B4      __init_streams
 0001:0001BA70      c1008_1
 0001:0001BA70      __exit_streams
 0001:0001BACC      c1020_0
 0001:0001BACC      ___org_ungetc
 0001:0001BACC      _ungetc
 0001:0001BB1C      c1024_0
 0001:0001BB1C      __unlink
 0001:0001BB38      c1036_0
 0001:0001BBE8      ___vprinter
 0001:0001C524      c1112_0
 0001:0001C524      __xfclose
 0001:0001C554      c1114_0
 0001:0001C554      __xfflush
 0001:0001C57C      c1120_0
 0001:0001C57C      __win32DateTimeToPOSIX
 0001:0001C840      c1128_0
 0001:0001C840      __getLocaleNumericInfo
 0001:0001C894      _isalnum
 0001:0001C894      c1136_0
 0001:0001C8AC      _isascii
 0001:0001C8C0      _isalpha
 0001:0001C8D8      _iscntrl
 0001:0001C8EC      _isdigit
 0001:0001C900      _isgraph
 0001:0001C918      _islower
 0001:0001C92C      _isprint
 0001:0001C944      _ispunct
 0001:0001C958      _isspace
 0001:0001C96C      _isupper
 0001:0001C980      _isxdigit
 0001:0001C998      _iswalnum
 0001:0001C998      c1138_0
 0001:0001C9B0      _iswascii
 0001:0001C9C4      _iswalpha
 0001:0001C9DC      _iswcntrl
 0001:0001C9F0      _iswdigit
 0001:0001CA04      _iswgraph
 0001:0001CA1C      _iswlower
 0001:0001CA30      _iswprint
 0001:0001CA48      _iswpunct
 0001:0001CA5C      _iswspace
 0001:0001CA70      _iswupper
 0001:0001CA84      _iswxdigit
 0001:0001CA9C      ___isctype
 0001:0001CA9C      c1140_0
 0001:0001CAE0      c1142_0
 0001:0001CAE0      ___iswctype
 0001:0001CB38      __setLocale32W
 0001:0001CB38      c1144_0
 0001:0001CBE8      __setLocale32A
 0001:0001D0B0      __lockLocale
 0001:0001D0BC      __unlockLocale
 0001:0001D0C8      __initLocale
 0001:0001D0C8      c1144_2
 0001:0001D0CC      c1144_3
 0001:0001D0CC      __cleanLocale
 0001:0001D138      __getLocale
 0001:0001D390      __setNewCategories
 0001:0001D54C      __cleanCategories
 0001:0001D8F8      __setLocaleFromString
 0001:0001DB18      __addCategoryName
 0001:0001DCB8      __allocAndGetValue
 0001:0001DCB8      c1148_0
 0001:0001DD14      __getShortValue
 0001:0001DD70      __setCType
 0001:0001DE58      __setMonetary
 0001:0001DFD8      __setTime
 0001:0001E434      __setNumeric
 0001:0001E4BC      __setCollate
 0001:0001E4C8      c1150_0
 0001:0001E4C8      __llocaleconv
 0001:0001E560      c1168_0
 0001:0001E560      __lstrlwr
 0001:0001E584      c1180_0
 0001:0001E584      __ltolower
 0001:0001E5D8      c1188_0
 0001:0001E5D8      _mblen
 0001:0001E5D8      ___org_mblen
 0001:0001E654      ___org_mbtowc
 0001:0001E654      _mbtowc
 0001:0001E728      ___org_wctomb
 0001:0001E728      _wctomb
 0001:0001E79C      ___org_mbstowcs
 0001:0001E79C      _mbstowcs
 0001:0001E904      _wcstombs
 0001:0001E904      ___org_wcstombs
 0001:0001EAA8      c1238_0
 0001:0001EAA8      __llmul
 0001:0001EACB      __lldiv
 0001:0001EB43      __lludiv
 0001:0001EB8C      __llmod
 0001:0001EC06      __llumod
 0001:0001EC54      __llshl
 0001:0001EC70      __llshr
 0001:0001EC8C      __llushr
 0001:0001ECA8      ___org_ltoa
 0001:0001ECA8      _ltoa
 0001:0001ECA8      c1268_0
 0001:0001ECB0      c1272_0
 0001:0001ECB0      ___matherr
 0001:0001ED60      __pow10
 0001:0001ED60      c1278_0
 0001:0001EEE8      c1302_0
 0001:0001EEE8      _atol
 0001:0001EEE8      ___org_atol
 0001:0001EF50      _atoi
 0001:0001EF50      ___org_atoi
 0001:0001EF60      __clear87
 0001:0001EF60      c1314_0
 0001:0001EF74      __control87
 0001:0001EF74      c1328_0
 0001:0001EFA4      ___realcvt
 0001:0001EFA4      c1330_0
 0001:0001EFAA      ___nextreal
 0001:0001EFB0      __scantod
 0001:0001EFB6      __scanrslt
 0001:0001EFBC      c1334_0
 0001:0001EFD4      c1336_0
 0001:0001EFEC      c1358_0
 0001:0001EFEC      _fabs
 0001:0001EFFC      __fpreset
 0001:0001EFFC      c1376_0
 0001:0001F014      c1384_0
 0001:0001F014      __fuildq
 0001:0001F044      __fuistq
 0001:0001F044      c1386_0
 0001:0001F068      __fxam
 0001:0001F068      c1388_0
 0001:0001F07C      ___int64toa
 0001:0001F07C      c1404_0
 0001:0001F130      c1414_0
 0001:0001F130      ___ldtrunc
 0001:0001F248      c1424_0
 0001:0001F248      ___longtoa
 0001:0001F2BC      ___utoa
 0001:0001F2D8      c1432_0
 0001:0001F2D8      _itoa
 0001:0001F2D8      ___org_itoa
 0001:0001F308      ___org_ultoa
 0001:0001F308      _ultoa
 0001:0001F328      __ltoa
 0001:0001F350      __matherr
 0001:0001F350      c1436_0
 0001:0001F350      ___org__matherr
 0001:0001F37C      c1438_0
 0001:0001F37C      __matherrl
 0001:0001F37C      ___org__matherrl
 0001:0001F3AC      __initmatherr
 0001:0001F3AC      c1440_0
 0001:0001F3C4      __qdiv10
 0001:0001F3C4      c1462_0
 0001:0001F3EC      c1464_0
 0001:0001F3EC      __qmul10
 0001:0001F41C      _srand
 0001:0001F41C      c1466_0
 0001:0001F438      c1466_2
 0001:0001F444      _rand
 0001:0001F460      __lrand
 0001:0001F4AC      c1468_0
 0001:0001F790      __cvt_init
 0001:0001F7A8      c1470_0
 0001:0001FAC4      __cvt_initw
 0001:0001FADC      c1478_0
 0001:0001FFA8      __scan_init
 0001:0001FFC0      c1480_0
 0001:00020488      __scan_initw
 0001:000204A0      ___org_sqrt
 0001:000204A0      c1490_0
 0001:000204A0      _sqrt
 0001:000204DC      c1524_0
 0001:000204DC      ___xcvt
 0001:000207B0      ___xcvtw
 0001:000207B0      c1526_0
 0001:00020AA4      c1538_0
 0001:00020AA4      __setmbcp
 0001:00020BC8      __getmbcp
 0001:00020BD0      c1538_3
 0001:00020BD0      __initMBCSTable
 0001:00020BE0      c1560_0
 0001:00020BE0      __ismbcspace
 0001:00020BFC      __mbsrchr
 0001:00020BFC      c1622_0
 0001:00020C54      c1674_0
 0001:00020C9C      __assert
 0001:00020CFC      c1690_0
 0001:00020D4C      __ErrorMessageHelper
 0001:00020DB4      c1694_0
 0001:00020E0C      __ErrorMessage
 0001:00020F28      ___ErrorMessage
 0001:00020F38      __ErrorExit
 0001:00020F50      c1702_0
 0001:00020F50      c1702_3
 0001:00020FDC      c1721_0
 0001:00020FDC      __abort
 0001:00020FF0      _abort
 0001:00021000      c1759_0
 0001:00021058      _exit
 0001:00021070      __exit
 0001:00021088      __cexit
 0001:00021098      __c_exit
 0001:000210A8      c1767_0
 0001:000210A8      __init_wild_handlers
 0001:000210C4      __argv_default_expand
 0001:000210C4      c1769_0
 0001:000210D8      c1771_0
 0001:000210D8      __wargv_default_expand
 0001:000210EC      __init_setargv_handlers
 0001:000210EC      c1777_0
 0001:00021114      __setargv
 0001:00021114      c1783_3
 0001:00021114      c1783_0
 0001:0002119C      __exitargv
 0001:0002119C      c1783_4
 0001:00021280      __handle_setargv
 0001:00021280      c1785_0
 0001:000213D8      __handle_exitargv
 0001:00021468      c1787_0
 0001:00021468      __handle_wsetargv
 0001:000215FC      __handle_wexitargv
 0001:00021690      c1845_2
 0001:00021690      c1845_0
 0001:000216C8      c1845_3
 0001:000216D8      _setjmp
 0001:000216D8      c1849_0
 0001:0002170E      _longjmp
 0001:0002178A      __DoLongJump__
 0001:00021790      c1859_0
 0001:00021790      c1859_4
 0001:000217C4      __expandblock
 0001:00021910      c1859_3
 0001:00021930      c1863_0
 0001:00021B58      _signal
 0001:00021BB8      _raise
 0001:00021BB8      ___org_raise
 0001:00021C28      c1883_0
 0001:00021C28      __terminate
 0001:00021C38      __create_shmem
 0001:00021C40      __init_exit_proc
 0001:00021D14      __cleanup
 0001:00021D80      __startup
 0001:00021D80      c1885_0
 0001:00021F24      c1899_0
 0001:00021F24      ___CRTL_TLS_Alloc
 0001:00021F2C      ___CRTL_TLS_Free
 0001:00021F3C      ___CRTL_TLS_GetValue
 0001:00021F4C      ___CRTL_TLS_SetValue
 0001:00021F60      ___CRTL_TLS_InitThread
 0001:00021F68      ___CRTL_TLS_ExitThread
 0001:00021F70      ___CRTL_TLS_GetInfo
 0001:00021F74      c1977_0
 0001:00021F74      c1977_3
 0001:00021F9F      ___JumpToCatch__
 0001:00022209      ___raiseDebuggerException
 0001:000225C4      _ThrowExceptionLDTC(void *, void *, void *, void *, unsigned int, unsigned int, unsigned int, unsigned char *, void *)
 0001:000225F9      _ReThrowException(unsigned int, unsigned char *)
 0001:00022664      __Global_unwind
 0001:000227A0      _CatchCleanup()
 0001:00022CD0      __Local_unwind
 0001:00022CE3      __Return_unwind
 0001:00022D44      ____ExceptionHandler
 0001:00023AC2      __CurrExcContext
 0002:00000098      d1_1
 0002:000000DC      ___isGUI
 0002:00000114      ___isVCLPackage
 0002:00000115      ___isDLL
 0002:00000122      ___useDynamicTLS
 0002:00000123      __TLS_index
 0002:00000127      __TLS_index4
 0002:0000012B      __hInstance
 0002:00000130      ___CPPdebugHook
 0002:00000130      ___CPPdebugHook_segment
 0002:00000134      __PackageInfoTable
 0002:0000013C      d2_1
 0002:0000017C      _name
 0002:00001C30      d7_1
 0002:00001D04      d9_1
 0002:00002458      d11_1
 0002:0000287C      d13_1
 0002:000029C8      d15_1
 0002:00002C10      d17_1
 0002:00002EA4      d19_1
 0002:00003020      d21_1
 0002:00003144      d23_1
 0002:00003224      d29_1
 0002:000032FC      d31_1
 0002:0000351C      d33_1
 0002:0000368C      d35_1
 0002:00003710      _mem_connect
 0002:00003A74      d37_1
 0002:00003C58      d39_1
 0002:00003DC8      d41_1
 0002:00003EA4      d43_1
 0002:00003FF8      d45_1
 0002:000041D0      d47_1
 0002:000042E8      d49_1
 0002:000043C8      d51_1
 0002:00004464      d53_1
 0002:000044F4      d55_1
 0002:000045C0      d57_1
 0002:00004684      d59_1
 0002:00004720      d61_1
 0002:000047C8      d63_1
 0002:00004880      d69_1
 0002:00004A50      d71_1
 0002:00004DD0      d73_1
 0002:00005118      d85_1
 0002:0000538C      d97_1
 0002:000054C0      d317_1
 0002:000054C4      d319_1
 0002:0000555C      d329_1
 0002:00005560      __heap_redirector
 0002:0000557C      d335_1
 0002:0000557C      __virt_heap_size
 0002:00005580      __virt_chunk_size
 0002:00005584      __virt_chunk_size2
 0002:00005588      __nv_heap_size
 0002:0000558C      __smalloc_threshold
 0002:00005590      __virt_chunk_free
 0002:00005594      __virt_chunk_free2
 0002:00005598      __firstHeap
 0002:0000559C      __lastHeap
 0002:000055A0      __linktable
 0002:000055A4      __freeStart
 0002:000055B0      __rover
 0002:000055B8      ___allocated
 0002:000055BC      ___xxPersonality
 0002:000055BC      d630_0
 0002:000055C0      d632_1
 0002:000058E0      ___terminatePTR
 0002:000058E0      d634_1
 0002:000058E4      ___unexpectdPTR
 0002:000058E8      __chtbl__ std::terminate()
 0002:00005908      __ectbl__ std::terminate()
 0002:0000591C      d636_1
 0002:0000591C      ___CPPexceptionList
 0002:00005920      ___exceptFlags
 0002:00005924      ___throwFileName
 0002:00005928      ___throwLineNumber
 0002:0000592C      ___throwExceptionName
 0002:00005930      ___exceptStaticBuffP
 0002:00005934      ___exceptMemAllocVars
 0002:00005938      ___ExceptStaticXbuff
 0002:000059B8      __ExceptVarsSize
 0002:000059CC      __chtbl__ __call_terminate()
 0002:000059EC      __ectbl__ __call_terminate()
 0002:00005A00      d642_1
 0002:00005A00      __stkchk
 0002:00005A14      d678_1
 0002:00005A14      __cfinfo_get
 0002:00005A18      __notUmask
 0002:00005A18      d732_1
 0002:00005A1C      __fileinfo
 0002:00005A1C      d758_0
 0002:00005A20      d830_0
 0002:00005A20      __streams
 0002:00005ED0      __nfile
 0002:00005ED0      d832_0
 0002:00005ED4      __openfd
 0002:00005F9C      d842_0
 0002:00005F9C      __fmode
 0002:00005FA0      d844_1
 0002:00005FA0      __fmodeptr
 0002:00005FA4      d908_1
 0002:00005FA4      __dosErrorToSV
 0002:000060D0      d932_1
 0002:000060DC      d940_1
 0002:000060DC      __sys_errlist
 0002:000061A0      __sys_nerr
 0002:00006558      d968_1
 0002:000065DC      d1036_1
 0002:00006654      __chartype
 0002:00006654      d1116_0
 0002:00006858      d1118_1
 0002:00006858      __localeconvention
 0002:00006894      d1120_1
 0002:000068E4      d1122_0
 0002:000068E4      __lower
 0002:000069E4      ___mb_cur_max
 0002:000069E4      d1144_1
 0002:000069E8      ___localeLock
 0002:00006AFC      _CMonetary
 0002:00006AFC      d1146_0
 0002:00006B30      _CNumeric
 0002:00006B48      _CTimeDate
 0002:00006C0C      _CLOCALE
 0002:00006C38      ___locale
 0002:00006D5C      d1148_1
 0002:00006DC4      d1272_1
 0002:00006DD4      d1278_1
 0002:00006E94      __realcvtptr
 0002:00006E94      d1334_1
 0002:00006E98      __nextrealptr
 0002:00006E9C      __scantodptr
 0002:00006EA0      __scanrsltptr
 0002:00006EFC      __realcvtwptr
 0002:00006EFC      d1336_1
 0002:00006F00      __nextrealwptr
 0002:00006F04      __scanwtodptr
 0002:00006F08      __scanwrsltptr
 0002:00006F64      __default87
 0002:00006F64      d1338_0
 0002:00006F68      d1392_0
 0002:00006F68      __huge_flt
 0002:00006F6C      __huge_dble
 0002:00006F74      __huge_ldble
 0002:00006F7E      __max_flt
 0002:00006F82      __max_dble
 0002:00006F8A      __max_ldble
 0002:00006F94      __indefinite
 0002:00006F98      __tiny_ldble
 0002:00006FA4      ___ieee_64_p_inf
 0002:00006FAC      ___ieee_64_n_inf
 0002:00006FB4      ___ieee_64_p_nanq
 0002:00006FBC      ___ieee_64_n_nanq
 0002:00006FC4      ___ieee_64_p_nans
 0002:00006FCC      ___ieee_64_n_nans
 0002:00006FD4      ___ieee_64_p_zero
 0002:00006FDC      ___ieee_64_n_zero
 0002:00006FE4      d1402_0
 0002:00006FE4      __turboFloat
 0002:00006FE8      __floatconvert
 0002:00006FEC      __pmatherr
 0002:00006FEC      d1440_1
 0002:00006FF0      __pmatherrl
 0002:00006FF4      d1444_0
 0002:00006FF4      __mathwhy
 0002:00007038      d1466_1
 0002:00007040      d1468_1
 0002:00007054      d1470_1
 0002:0000707C      d1478_1
 0002:000070A4      d1480_1
 0002:000070CC      d1490_1
 0002:000070DC      __kalpha
 0002:000070DC      d1538_1
 0002:000070DE      __kpunct
 0002:00007124      d1674_1
 0002:00007148      d1690_1
 0002:0000716C      _errno
 0002:0000716C      d1692_1
 0002:00007170      __messagefunc
 0002:00007170      d1694_1
 0002:00007174      __messagefile
 0002:00007180      d1702_1
 0002:000071A8      d1721_1
 0002:000071C8      d1723_0
 0002:000071C8      ___pCallAtExitProcs
 0002:000071CC      d1759_1
 0002:000071CC      __exitbuf
 0002:000071D0      __exitfopen
 0002:000071D4      __exitopen
 0002:000071D8      d1779_0
 0002:000071D8      __setargv_ptr
 0002:000071DC      __exitargv_ptr
 0002:000071E0      d1781_0
 0002:000071E0      __wsetargv_ptr
 0002:000071E4      __wexitargv_ptr
 0002:000071E8      __setargv__
 0002:000071E8      d1783_1
 0002:0000723C      __cmdline_escapes
 0002:0000723C      d1785_1
 0002:00007264      d1787_1
 0002:00007288      __argv_expand_ptr
 0002:00007288      d1841_0
 0002:0000728C      d1843_0
 0002:0000728C      __wargv_expand_ptr
 0002:00007290      d1845_1
 0002:00007290      __argv0
 0002:000072B0      d1849_1
 0002:000072B4      __setenvp__
 0002:000072B4      d1859_1
 0002:00007308      d1863_1
 0002:00007368      __isWindows
 0002:00007368      d1881_0
 0002:0000736C      d1883_1
 0002:00007370      ___debuggerDisableTerminateCallback
 0002:00007370      d1977_1
 0003:00000000      b2_2
 0003:00000000      _test_err
 0003:00000008      _restart
 0003:00000008      b9_2
 0003:00000028      b11_2
 0003:0000007C      b23_2
 0003:0000015C      b31_2
 0003:000001B0      b35_2
 0003:00000200      b37_2
 0003:000021D0      b71_2
 0003:000021DC      b319_2
 0003:000021DC      __bormm_pfn_FreeMem
 0003:000021E0      __bormm_pfn_GetMem
 0003:000021E4      __bormm_pfn_ReallocMem
 0003:000021E8      __bormm_pfn_HeapAddRef
 0003:000021EC      __bormm_pfn_HeapRelease
 0003:000021F4      b632_2
 0003:00002604      __DestructorCountPtr
 0003:00002604      b636_2
 0003:0000260C      b642_2
 0003:0000260C      __HandlerPtr
 0003:00002610      __UserHandlerPtr
 0003:00002614      b832_1
 0003:00002614      __pidtab
 0003:000026DC      __handles
 0003:000027A4      b908_2
 0003:000027A4      __doserrno
 0003:000027A8      b914_1
 0003:000027AC      __tmpnum
 0003:000027AC      b932_2
 0003:000027BC      b1538_2
 0003:000027BC      __mbctype
 0003:000028C0      __mbcsCodePage
 0003:000028C4      b1674_2
 0003:000029C4      b1690_2
 0003:000029E0      __ostype
 0003:000029E0      b1702_2
 0003:000029E4      __argv
 0003:000029E4      b1783_2
 0003:000029F0      b1785_2
 0003:000029F4      b1787_2
 0003:000029F8      __environ
 0003:000029F8      b1859_2
 0003:00002A00      __envsize
 0003:00002A04      __env_lock
 0003:00002A08      __C0argc
 0003:00002A08      b1881_1
 0003:00002A0C      __C0argv
 0003:00002A10      __C0environ
 0003:00002A14      __oscmd
 0003:00002A18      __osenv
 0003:00002A1C      __argc
 0003:00002A20      __dll_table
 0003:00002A28      __ExcRegPtr
 0003:00002A2C      __wosenv
 0003:00002A30      __woscmd
 0003:00002A34      __wC0argv
 0003:00002A38      __wC0environ
 0003:00002A3C      __exe_table
 0003:00002A44      __stkbase
 0003:00002A48      b1977_2
 0003:00002A4C      ___pCPPdebugHook
 0004:00000000      ___xxInfo
 0004:00000000      t636_3
