
 Start         Length     Name                   Class
 0001:00401000 0000165A8H _TEXT                  CODE
 0002:00418000 000004CB4H _DATA                  DATA
 0003:0041CCB4 000002A4CH _BSS                   BSS
 0004:00000000 00000009CH _TLS                   TLS

  Address         Publics by Name

 0001:00000140      Sysinit::__linkproc__ __fastcall GetTls()
 0002:00003D28      _CLOCALE
 0002:00003C18      _CMonetary
 0002:00003C4C      _CNumeric
 0002:00003C64      _CTimeDate
 0001:000150E8      _CatchCleanup()
 0001:0000C664      _InitTermAndUnexPtrs()
 0001:00014F41      _ReThrowException(unsigned int, unsigned char *)
 0001:00014F0C      _ThrowExceptionLDTC(void *, void *, void *, void *, unsigned int, unsigned int, unsigned int, unsigned char *, void *)
 0003:000029FC      __C0argc
 0003:00002A00      __C0argv
 0003:00002A04      __C0environ
 0001:0001640A      __CurrExcContext
 0003:00002608      __DestructorCountPtr
 0001:000140D2      __DoLongJump__
 0001:00013880      __ErrorExit
 0001:00013754      __ErrorMessage
 0001:00013694      __ErrorMessageHelper
 0003:00002A1C      __ExcRegPtr
 0001:0000C7DC      __ExceptInit
 0002:00002AE4      __ExceptVarsSize
 0001:0000BEE7      __ExceptionHandler
 0001:0000BED9      __ExitExceptBlock
 0001:00000059      __GetExceptDLLinfo
 0001:0000C828      __GetExceptDLLinfoInternal
 0001:00014FAC      __Global_unwind
 0003:00002610      __HandlerPtr
 0001:0000C9C4      __InitDefaultHander
 0001:0000BEA0      __InitExceptBlockLDTC
 0001:00015618      __Local_unwind
 0002:00000134      __PackageInfoTable
 0001:0001562B      __Return_unwind
 0001:0000C9D8      __SetExceptionHandler
 0001:0000C978      __SetUserHandler
 0002:00000123      __TLS_index
 0002:00000127      __TLS_index4
 0001:0000C9ED      __UnsetExceptionHandler
 0001:0000CA19      __UnwindException
 0003:00002614      __UserHandlerPtr
 0002:00000130      ___CPPdebugHook
 0002:00000130      ___CPPdebugHook_segment
 0002:00002A48      ___CPPexceptionList
 0001:0000AD64      ___CRTL_MEM_CheckBorMem
 0001:0000ACE8      ___CRTL_MEM_GetBorMemPtrs
 0001:0000ADA0      ___CRTL_MEM_Revector
 0001:0000AE58      ___CRTL_MEM_UseBorMM
 0001:0001486C      ___CRTL_TLS_Alloc
 0001:000148B0      ___CRTL_TLS_ExitThread
 0001:00014874      ___CRTL_TLS_Free
 0001:000148B8      ___CRTL_TLS_GetInfo
 0001:00014884      ___CRTL_TLS_GetValue
 0001:000148A8      ___CRTL_TLS_InitThread
 0001:00014894      ___CRTL_TLS_SetValue
 0001:0000BAC0      ___CRTL_VCLLIB_Linkage
 0001:0000BABC      ___CRTL_VCL_Init
 0001:0000D64C      ___DOSerror
 0001:0000C850      ___DefHandler
 0001:00013870      ___ErrorMessage
 0002:00002A64      ___ExceptStaticXbuff
 0001:0000D608      ___IOerror
 0001:000148E7      ___JumpToCatch__
 0001:0000D66C      ___NTerror
 0001:00000140      ___System__GetTls
 0001:0001568C      ____ExceptionHandler
 0001:00003B9C      ___add__
 0002:000026E4      ___allocated
 0001:0000C730      ___call_terminate
 0001:0000C7A4      ___call_unexpected
 0002:00004428      ___debuggerDisableTerminateCallback
 0001:0000CA26      ___doGlobalUnwind
 0001:0000CA44      ___eof
 0002:00002A4C      ___exceptFlags
 0002:00002A60      ___exceptMemAllocVars
 0002:00002A5C      ___exceptStaticBuffP
 0001:0000D24C      ___fputn
 0002:000040B8      ___ieee_64_n_inf
 0002:000040C8      ___ieee_64_n_nanq
 0002:000040D8      ___ieee_64_n_nans
 0002:000040E8      ___ieee_64_n_zero
 0002:000040B0      ___ieee_64_p_inf
 0002:000040C0      ___ieee_64_p_nanq
 0002:000040D0      ___ieee_64_p_nans
 0002:000040E0      ___ieee_64_p_zero
 0001:00011A00      ___int64toa
 0001:00003C13      ___ip4__
 0001:000039A4      ___ip__
 0002:00000115      ___isDLL
 0002:000000DC      ___isGUI
 0002:00000114      ___isVCLPackage
 0001:0000CACC      ___isatty
 0001:0000CAFC      ___isatty_osfhandle
 0001:0000F4D0      ___isctype
 0001:0000F514      ___iswctype
 0001:00003DFB      ___lc4__
 0001:00011AB4      ___ldtrunc
 0002:00003D54      ___locale
 0002:00003B04      ___localeLock
 0001:00011BCC      ___longtoa
 0001:0000CB14      ___lseek
 0001:00003FAA      ___ma4__
 0002:00003B00      ___mb_cur_max
 0001:00003AA4      ___mltadd__
 0001:0001192E      ___nextreal
 0001:0000B828      ___org__expand
 0001:0000D728      ___org__fgetc
 0001:0000CE90      ___org__fputc
 0001:00011CD4      ___org__matherr
 0001:00011D00      ___org__matherrl
 0001:0000BAA0      ___org__msize
 0001:0000CEF8      ___org__read
 0001:0000CEB0      ___org__rtl_read
 0001:0000CF14      ___org__rtl_write
 0001:0000CF5C      ___org__write
 0001:000118D4      ___org_atoi
 0001:0001186C      ___org_atol
 0001:0000AB68      ___org_calloc
 0001:0000AB94      ___org_delete
 0001:0000ABA4      ___org_deletea
 0001:0000CFF8      ___org_fflush
 0001:0000D740      ___org_fgetc
 0001:0000D078      ___org_fgets
 0001:0000D228      ___org_fprintf
 0001:0000D828      ___org_fputc
 0001:0000AD78      ___org_free
 0001:0000D328      ___org_fscanf
 0001:0000D680      ___org_isatty
 0001:00011C5C      ___org_itoa
 0001:000116DC      ___org_ltoa
 0001:0000AD68      ___org_malloc
 0001:0001100C      ___org_mblen
 0001:000111D0      ___org_mbstowcs
 0001:00011088      ___org_mbtowc
 0001:0000BAC4      ___org_memchr
 0001:0000BD54      ___org_memcmp
 0001:0000BAE4      ___org_memcpy
 0001:0000BB08      ___org_memmove
 0001:0000BB54      ___org_memset
 0001:0000D938      ___org_printf
 0001:00014500      ___org_raise
 0001:0000AD88      ___org_realloc
 0001:0000E3EC      ___org_sscanf
 0001:0000BBF8      ___org_strcat
 0001:0000BC34      ___org_strchr
 0001:0000BDC0      ___org_strdup
 0001:0000BC88      ___org_strlen
 0001:0000BCE4      ___org_strncat
 0001:0000BDF4      ___org_strstr
 0001:00011C8C      ___org_ultoa
 0001:0000E54C      ___org_ungetc
 0001:0000E410      ___org_vsscanf
 0001:00011338      ___org_wcstombs
 0001:0001115C      ___org_wctomb
 0003:00002A40      ___pCPPdebugHook
 0002:00004280      ___pCallAtExitProcs
 0001:00014B51      ___raiseDebuggerException
 0001:0000CBF8      ___read
 0001:00011928      ___realcvt
 0001:0000E194      ___scantoint64
 0001:00003B74      ___smlt__
 0001:00003BCB      ___sub__
 0002:00002A0C      ___terminatePTR
 0002:00002A58      ___throwExceptionName
 0002:00002A50      ___throwFileName
 0002:00002A54      ___throwLineNumber
 0002:00002A10      ___unexpectdPTR
 0002:00000122      ___useDynamicTLS
 0001:00011C40      ___utoa
 0001:0000E64C      ___vprinter
 0001:0000CD28      ___write
 0001:00012E24      ___xcvt
 0001:000130F8      ___xcvtw
 0004:00000000      ___xxInfo
 0002:000026E8      ___xxPersonality
 0001:0000A195      ___zadd__
 0001:00009EC4      ___zconj__
 0001:00003BFA      ___zero__
 0001:00009EF0      ___zip__
 0001:0000A114      ___zmlt__
 0001:00009FFC      ___zmltadd__
 0001:0000A1E9      ___zsub__
 0001:0000A23D      ___zzero__
 0001:00013924      __abort
 0001:00000000      __acrtused
 0001:0001054C      __addCategoryName
 0001:0000C5E8      __adjustClassAdr(void *, tpid *, tpid *)
 0001:000106EC      __allocAndGetValue
 0001:0000CF78      __allocbuf
 0003:00002A10      __argc
 0003:000029D8      __argv
 0002:00004348      __argv0
 0001:00013A0C      __argv_default_expand
 0002:00004340      __argv_expand_ptr
 0001:000135E4      __assert
 0003:000021E0      __bormm_pfn_FreeMem
 0003:000021E4      __bormm_pfn_GetMem
 0003:000021EC      __bormm_pfn_HeapAddRef
 0003:000021F0      __bormm_pfn_HeapRelease
 0003:000021E8      __bormm_pfn_ReallocMem
 0001:000139E0      __c_exit
 0001:000139D0      __cexit
 0002:00002B40      __cfinfo_get
 0002:00003770      __chartype
 0002:00002AF8      __chtbl__ __call_terminate()
 0002:00002A14      __chtbl__ std::terminate()
 0001:0000FF80      __cleanCategories
 0001:0000FB00      __cleanLocale
 0001:0001465C      __cleanup
 0001:000118E4      __clear87
 0002:000042F4      __cmdline_escapes
 0001:000118F8      __control87
 0001:00014580      __create_shmem
 0001:00012114      __cvt_init
 0001:00012448      __cvt_initw
 0002:00004070      __default87
 0003:00002A14      __dll_table
 0002:000030CC      __dosErrorToSV
 0003:000027A8      __doserrno
 0001:0000D38C      __dup_handle
 0002:00002B18      __ectbl__ __call_terminate()
 0002:00002A34      __ectbl__ std::terminate()
 0003:000029F8      __env_lock
 0003:000029EC      __environ
 0003:000029F4      __envsize
 0003:00002A30      __exe_table
 0001:000139B8      __exit
 0001:0000C9B0      __exit_except
 0001:0000E4F0      __exit_streams
 0001:00013AE4      __exitargv
 0002:00004294      __exitargv_ptr
 0002:00004284      __exitbuf
 0002:00004288      __exitfopen
 0002:0000428C      __exitopen
 0001:0000B828      __expand
 0001:0001410C      __expandblock
 0001:0000D728      __fgetc
 0002:00002B44      __fileinfo
 0002:000026C4      __firstHeap
 0002:000040F4      __floatconvert
 0001:0000CE58      __flushall
 0001:0000D1A8      __flushout
 0002:000030C4      __fmode
 0002:000030C8      __fmodeptr
 0001:00011980      __fpreset
 0001:0000CE90      __fputc
 0002:000026D0      __freeStart
 0001:0000D3F4      __free_handle
 0001:0000AE48      __free_heaps
 0001:00011998      __fuildq
 0001:000119C8      __fuistq
 0001:000119EC      __fxam
 0001:00000066      __getHInstance
 0001:0000FB6C      __getLocale
 0001:0000F274      __getLocaleNumericInfo
 0001:00010748      __getShortValue
 0001:0000D34C      __get_handle
 0001:00013510      __getmbcp
 0002:0000012B      __hInstance
 0001:00013D20      __handle_exitargv
 0001:00013BC8      __handle_setargv
 0001:00013F44      __handle_wexitargv
 0001:00013DB0      __handle_wsetargv
 0003:000026E0      __handles
 0002:0000268C      __heap_redirector
 0002:00004078      __huge_dble
 0002:00004074      __huge_flt
 0002:00004080      __huge_ldble
 0002:000040A0      __indefinite
 0001:0000FAFC      __initLocale
 0001:00013518      __initMBCSTable
 0001:0000C998      __init_except
 0001:00014588      __init_exit_proc
 0001:0000D4AC      __init_handles
 0001:00013A34      __init_setargv_handlers
 0001:0000E434      __init_streams
 0001:000139F0      __init_wild_handlers
 0001:0000D214      __initfileinfo
 0001:0000D204      __initfmode
 0001:00011D30      __initmatherr
 0001:0000B440      __internal_free
 0001:0000B7C8      __internal_free_heaps
 0001:0000B5B0      __internal_malloc
 0001:0000BA08      __internal_realloc
 0001:0000C4D8      __isCompatTypeID(tpid *, tpid *, int, tpid * *)
 0001:0000005E      __isDLL
 0001:0000C3FC      __isSameTypeID(tpid *, tpid *)
 0002:00004420      __isWindows
 0001:00013528      __ismbcspace
 0002:00004194      __kalpha
 0002:00004196      __kpunct
 0002:000026C8      __lastHeap
 0002:000026CC      __linktable
 0001:000114FF      __lldiv
 0001:000115C0      __llmod
 0001:000114DC      __llmul
 0001:00010EFC      __llocaleconv
 0001:00011688      __llshl
 0001:000116A4      __llshr
 0001:00011577      __lludiv
 0001:0001163A      __llumod
 0001:000116C0      __llushr
 0002:00003974      __localeconvention
 0001:0000FAE4      __lockLocale
 0002:00003A00      __lower
 0001:00011DE4      __lrand
 0001:00010F94      __lstrlwr
 0001:00011CAC      __ltoa
 0001:00010FB8      __ltolower
 0001:000005B8      __m_copy
 0001:00011CD4      __matherr
 0001:00011D00      __matherrl
 0002:0000408E      __max_dble
 0002:0000408A      __max_flt
 0002:00004096      __max_ldble
 0003:000028B4      __mbcsCodePage
 0003:000027B0      __mbctype
 0001:00013544      __mbsrchr
 0002:0000422C      __messagefile
 0002:00004228      __messagefunc
 0001:0000BAA0      __msize
 0002:00003FA4      __nextrealptr
 0002:0000400C      __nextrealwptr
 0002:00002FF8      __nfile
 0002:000026B4      __nv_heap_size
 0002:00002FFC      __openfd
 0003:00002A08      __oscmd
 0003:00002A0C      __osenv
 0003:000029D4      __ostype
 0001:0000B7B0      __phys_avail
 0003:00002618      __pidtab
 0002:000040F8      __pmatherr
 0002:000040FC      __pmatherrl
 0001:000116E4      __pow10
 0001:00011D48      __qdiv10
 0001:00011D70      __qmul10
 0001:0000CEF8      __read
 0002:00003FA0      __realcvtptr
 0002:00004008      __realcvtwptr
 0002:000026DC      __rover
 0001:0000CEB0      __rtl_read
 0001:0000CF14      __rtl_write
 0001:0001292C      __scan_init
 0001:00012E0C      __scan_initw
 0001:0000D95C      __scanner
 0001:0001193A      __scanrslt
 0002:00003FAC      __scanrsltptr
 0001:00011934      __scantod
 0002:00003FA8      __scantodptr
 0002:00004014      __scanwrsltptr
 0002:00004010      __scanwtodptr
 0001:000107A4      __setCType
 0001:00010EF0      __setCollate
 0001:0000F61C      __setLocale32A
 0001:0000F56C      __setLocale32W
 0001:0001032C      __setLocaleFromString
 0001:0001088C      __setMonetary
 0001:0000FDC4      __setNewCategories
 0001:00010E68      __setNumeric
 0001:00010A0C      __setTime
 0001:00013A5C      __setargv
 0002:000042A0      __setargv__
 0002:00004290      __setargv_ptr
 0002:0000436C      __setenvp__
 0001:0000C94C      __setexc
 0001:000133EC      __setmbcp
 0002:000026B8      __smalloc_threshold
 0001:000146C8      __startup
 0003:00002A38      __stkbase
 0002:00002B2C      __stkchk
 0002:00002B48      __streams
 0002:000031F8      __sys_errlist
 0002:000032BC      __sys_nerr
 0001:00014570      __terminate
 0002:000040A4      __tiny_ldble
 0002:000040F0      __turboFloat
 0001:0000C3C4      __typeIDname(tpid *)
 0001:0000FAF0      __unlockLocale
 0001:0000C968      __unsetexc
 0001:0000C98C      __unsetuserhandler
 0001:00000662      __v_copy
 0002:000026BC      __virt_chunk_free
 0002:000026C0      __virt_chunk_free2
 0002:000026AC      __virt_chunk_size
 0002:000026B0      __virt_chunk_size2
 0002:000026A8      __virt_heap_size
 0003:00002A28      __wC0argv
 0003:00002A2C      __wC0environ
 0001:00013A20      __wargv_default_expand
 0002:00004344      __wargv_expand_ptr
 0002:0000429C      __wexitargv_ptr
 0001:0000EFB0      __win32DateTimeToPOSIX
 0001:0000BBE0      __wmemset
 0003:00002A24      __woscmd
 0003:00002A20      __wosenv
 0001:0000CF5C      __write
 0002:00004298      __wsetargv_ptr
 0001:0000EF88      __xfflush
 0001:00013938      _abort
 0001:000118D4      _atoi
 0001:0001186C      _atol
 0001:00005A54      _band2mat
 0001:000065CC      _bdLDLfactor
 0001:000067A4      _bdLDLsolve
 0001:00006175      _bdLUfactor
 0001:000063DA      _bdLUsolve
 0001:000058F3      _bd_copy
 0001:00005620      _bd_free
 0001:00005550      _bd_get
 0001:00006957      _bd_mv_mlt
 0001:00005680      _bd_resize
 0001:00005CA1      _bd_transp
 0001:00001A83      _bfin_vec
 0001:00004737      _biv_finput
 0001:00001460      _bm_finput
 0001:0000177E      _bpx_finput
 0001:0000AB68      _calloc
 0001:00001161      _catch_FPE
 0001:00000CE0      _count_errs
 0001:00000C9C      _err_is_list_attached
 0001:00000B60      _err_list_attach
 0001:00000C4D      _err_list_free
 0002:00004224      _errno
 0001:00000CF3      _ev_err
 0001:000139A0      _exit
 0001:00011970      _fabs
 0001:0000CFF8      _fflush
 0001:0000D740      _fgetc
 0001:0000D078      _fgets
 0001:0000D228      _fprintf
 0001:0000D828      _fputc
 0001:0000AD78      _free
 0001:0000D328      _fscanf
 0001:000018F2      _ifin_vec
 0001:000045AD      _iiv_finput
 0001:00001209      _im_finput
 0001:000015E4      _ipx_finput
 0001:0000F2C8      _isalnum
 0001:0000F2F4      _isalpha
 0001:0000F2E0      _isascii
 0001:0000D680      _isatty
 0001:0000F30C      _iscntrl
 0001:0000F320      _isdigit
 0001:0000F334      _isgraph
 0001:0000F34C      _islower
 0001:0000F360      _isprint
 0001:0000F378      _ispunct
 0001:0000F38C      _isspace
 0001:0000F3A0      _isupper
 0001:0000F3CC      _iswalnum
 0001:0000F3F8      _iswalpha
 0001:0000F3E4      _iswascii
 0001:0000F410      _iswcntrl
 0001:0000F424      _iswdigit
 0001:0000F438      _iswgraph
 0001:0000F450      _iswlower
 0001:0000F464      _iswprint
 0001:0000F47C      _iswpunct
 0001:0000F490      _iswspace
 0001:0000F4A4      _iswupper
 0001:0000F4B8      _iswxdigit
 0001:0000F3B4      _isxdigit
 0001:00009A6F      _iter_copy
 0001:0000999C      _iter_copy2
 0001:0000989E      _iter_dump
 0001:0000976A      _iter_free
 0001:00009C8B      _iter_gen_nonsym
 0001:00009DB3      _iter_gen_nonsym_posdef
 0001:00009B4B      _iter_gen_sym
 0001:0000967E      _iter_get
 0001:000097DB      _iter_resize
 0001:000095FC      _iter_std_info
 0001:00009644      _iter_std_stop_crit
 0001:00011C5C      _itoa
 0001:00004389      _iv_add
 0001:00004285      _iv_copy
 0001:0000481D      _iv_dump
 0001:00004579      _iv_finput
 0001:000044CF      _iv_foutput
 0001:00004115      _iv_free
 0001:00002C32      _iv_free_vars
 0001:0000404C      _iv_get
 0001:00002AB4      _iv_get_vars
 0001:000042D9      _iv_move
 0001:000041AA      _iv_resize
 0001:00002B65      _iv_resize_vars
 0001:000048DF      _iv_sort
 0001:0000442C      _iv_sub
 0001:00003581      _iv_zero
 0001:00014056      _longjmp
 0001:000116DC      _ltoa
 0001:00000358      _m3d_free
 0002:00000140      _m3d_free_funcs
 0001:00000150      _m3d_get
 0002:0000013C      _m3d_names
 0001:00001DFF      _m_dump
 0001:000011D5      _m_finput
 0001:00001B7F      _m_foutput
 0001:000023DA      _m_free
 0001:00002CB2      _m_free_vars
 0001:000020C0      _m_get
 0001:00002ADE      _m_get_vars
 0001:00003617      _m_ident
 0001:0000073B      _m_move
 0001:00003907      _m_ones
 0001:00003878      _m_rand
 0001:000025AF      _m_resize
 0001:00002B93      _m_resize_vars
 0001:000035BC      _m_zero
 0001:000004AB      _main
 0001:0000AD68      _malloc
 0001:00005B5B      _mat2band
 0001:0001100C      _mblen
 0001:000111D0      _mbstowcs
 0001:00011088      _mbtowc
 0001:00004ACC      _mem_attach_list
 0001:00004E8C      _mem_bytes_list
 0002:00001464      _mem_connect
 0001:00004BF5      _mem_dump_list
 0001:00004B62      _mem_free_vars
 0001:00004CD7      _mem_info_bytes
 0001:00004D84      _mem_info_file
 0001:00004CCD      _mem_info_is_on
 0001:00004D2D      _mem_info_numvar
 0001:00004CBA      _mem_info_on
 0001:00004BAC      _mem_is_list_attached
 0001:00004F82      _mem_numvar_list
 0001:00005422      _mem_stat_dump
 0001:000052BB      _mem_stat_free_list
 0001:00005288      _mem_stat_mark
 0001:000051BB      _mem_stat_reg_list
 0001:0000551E      _mem_stat_reg_vars
 0001:00005514      _mem_stat_show_mark
 0001:0000BAC4      _memchr
 0001:0000BD54      _memcmp
 0001:0000BAE4      _memcpy
 0001:0000BB08      _memmove
 0001:0000BB54      _memset
 0001:000036B1      _mrand
 0001:00003740      _mrandlist
 0001:00000938      _mv_move
 0001:0000D938      _printf
 0001:000032DE      _px_cols
 0001:000006D9      _px_copy
 0001:00001F4F      _px_dump
 0001:000015B0      _px_finput
 0001:00001C95      _px_foutput
 0001:0000248B      _px_free
 0001:00002C72      _px_free_vars
 0001:00002228      _px_get
 0001:00002B0D      _px_get_vars
 0001:00003676      _px_ident
 0001:00002CF4      _px_inv
 0001:00002D85      _px_mlt
 0001:0000289D      _px_resize
 0001:00002BC4      _px_resize_vars
 0001:00003415      _px_rows
 0001:00003275      _px_sign
 0001:00003188      _px_transp
 0001:00002E77      _px_vec
 0001:00003066      _pxinv_vec
 0001:00014500      _raise
 0001:00011DC8      _rand
 0001:0000AD88      _realloc
 0003:0000000C      _restart
 0001:00000CCD      _set_err_flag
 0001:00001B60      _setformat
 0001:00014020      _setjmp
 0001:000144A0      _signal
 0001:00001178      _skipjunk
 0001:000037E3      _smrand
 0001:00007726      _sp_add
 0001:0000752F      _sp_col_access
 0001:000082BC      _sp_compact
 0001:000072C6      _sp_copy
 0001:00007DDB      _sp_copy2
 0001:0000760F      _sp_diag_access
 0001:00007170      _sp_free
 0001:0000840F      _sp_free_vars
 0001:00006F67      _sp_get
 0001:00006AD8      _sp_get_val
 0001:000083AC      _sp_get_vars
 0001:0000766D      _sp_m2dense
 0001:00007ADC      _sp_mltadd
 0001:00006D38      _sp_mv_mlt
 0001:00008013      _sp_resize
 0001:000083DE      _sp_resize_vars
 0001:00006B68      _sp_set_val
 0001:00007CC3      _sp_smlt
 0001:00007901      _sp_sub
 0001:00006E47      _sp_vm_mlt
 0001:00007D6C      _sp_zero
 0001:00008EC9      _sprow_add
 0001:00008B39      _sprow_copy
 0001:00008450      _sprow_dump
 0001:00009406      _sprow_foutput
 0001:00008966      _sprow_free
 0001:0000857F      _sprow_get
 0001:00008509      _sprow_idx
 0001:000089DB      _sprow_merge
 0001:00008CAA      _sprow_mltadd
 0001:00008826      _sprow_resize
 0001:0000946C      _sprow_set_val
 0001:00009303      _sprow_smlt
 0001:000090E8      _sprow_sub
 0001:0000865C      _sprow_xpd
 0001:00011DA0      _srand
 0001:0000E3EC      _sscanf
 0001:0000BBF8      _strcat
 0001:0000BC34      _strchr
 0001:0000BDC0      _strdup
 0001:0000BC88      _strlen
 0001:0000BCE4      _strncat
 0001:0000BDF4      _strstr
 0001:00000432      _test_stat
 0001:00011C8C      _ultoa
 0001:0000E54C      _ungetc
 0001:0000395E      _v_count
 0001:00001FDB      _v_dump
 0001:000018BE      _v_finput
 0001:00001D2F      _v_foutput
 0001:0000251D      _v_free
 0001:00002BF2      _v_free_vars
 0001:00002304      _v_get
 0001:00002A8A      _v_get_vars
 0001:00000888      _v_move
 0001:000038C1      _v_ones
 0001:00003840      _v_rand
 0001:0000298F      _v_resize
 0001:00002B37      _v_resize_vars
 0001:0000354C      _v_zero
 0001:0000AC20      _virt_alloc
 0001:0000AC48      _virt_commit
 0001:0000AC94      _virt_decommit
 0001:0000ACAC      _virt_release
 0001:0000ABB4      _virt_reserve
 0001:00000A36      _vm_move
 0001:0000E410      _vsscanf
 0001:0000BE60      _wcscpy
 0001:0000BE48      _wcslen
 0001:00011338      _wcstombs
 0001:0001115C      _wctomb
 0001:0000A50C      _zm_free
 0001:0000AB25      _zm_free_vars
 0001:0000A2D3      _zm_get
 0001:0000AA57      _zm_get_vars
 0001:0000A64F      _zm_resize
 0001:0000AAB4      _zm_resize_vars
 0001:0000A28D      _zm_zero
 0001:0000A5BD      _zv_free
 0001:0000AAE5      _zv_free_vars
 0001:0000A439      _zv_get
 0001:0000AA2D      _zv_get_vars
 0001:0000A932      _zv_resize
 0001:0000AA86      _zv_resize_vars
 0001:0000A258      _zv_zero
 0003:0000002C      b11_2
 0003:000027B0      b1538_2
 0003:000028B8      b1674_2
 0003:000029B8      b1690_2
 0003:000029D4      b1702_2
 0003:000029D8      b1783_2
 0003:000029E4      b1785_2
 0003:000029E8      b1787_2
 0003:000029EC      b1859_2
 0003:000029FC      b1881_1
 0003:00002A3C      b1977_2
 0003:00000080      b23_2
 0003:00000000      b2_2
 0003:000021E0      b319_2
 0003:00000160      b31_2
 0003:000001B4      b35_2
 0003:00000204      b37_2
 0003:000021F8      b632_2
 0003:00002608      b636_2
 0003:00002610      b642_2
 0003:000021D4      b71_2
 0003:00002618      b832_1
 0003:000027A8      b908_2
 0003:000027AC      b914_1
 0003:0000000C      b9_2
 0001:0000E3C0      c1000_0
 0001:0000E434      c1008_0
 0001:0000E4F0      c1008_1
 0001:0000E54C      c1020_0
 0001:0000E59C      c1036_0
 0001:0000EF88      c1114_0
 0001:0000EFB0      c1120_0
 0001:0000F274      c1128_0
 0001:0000F2C8      c1136_0
 0001:0000F3CC      c1138_0
 0001:0000F4D0      c1140_0
 0001:0000F514      c1142_0
 0001:0000F56C      c1144_0
 0001:0000FAFC      c1144_2
 0001:0000FB00      c1144_3
 0001:000106EC      c1148_0
 0001:00010EFC      c1150_0
 0001:00010F94      c1168_0
 0001:00010FB8      c1180_0
 0001:0001100C      c1188_0
 0001:00001178      c11_0
 0001:000114DC      c1238_0
 0001:000116DC      c1268_0
 0001:000116E4      c1278_0
 0001:0001186C      c1302_0
 0001:000118E4      c1314_0
 0001:000118F8      c1328_0
 0001:00011928      c1330_0
 0001:00011940      c1334_0
 0001:00011958      c1336_0
 0001:00011970      c1358_0
 0001:00011980      c1376_0
 0001:00011998      c1384_0
 0001:000119C8      c1386_0
 0001:000119EC      c1388_0
 0001:000020C0      c13_0
 0001:00011A00      c1404_0
 0001:00011AB4      c1414_0
 0001:00011BCC      c1424_0
 0001:00011C5C      c1432_0
 0001:00011CD4      c1436_0
 0001:00011D00      c1438_0
 0001:00011D30      c1440_0
 0001:00011D48      c1462_0
 0001:00011D70      c1464_0
 0001:00011DA0      c1466_0
 0001:00011DBC      c1466_2
 0001:00011E30      c1468_0
 0001:0001212C      c1470_0
 0001:00012460      c1478_0
 0001:00012944      c1480_0
 0001:00012E24      c1524_0
 0001:000130F8      c1526_0
 0001:000133EC      c1538_0
 0001:00013518      c1538_3
 0001:00013528      c1560_0
 0001:00013544      c1622_0
 0001:0001359C      c1674_0
 0001:00013644      c1690_0
 0001:000136FC      c1694_0
 0001:00013898      c1702_0
 0001:00013898      c1702_3
 0001:00013924      c1721_0
 0001:00013948      c1759_0
 0001:000139F0      c1767_0
 0001:00013A0C      c1769_0
 0001:00013A20      c1771_0
 0001:00013A34      c1777_0
 0001:00013A5C      c1783_0
 0001:00013A5C      c1783_3
 0001:00013AE4      c1783_4
 0001:00013BC8      c1785_0
 0001:00013DB0      c1787_0
 0001:00013FD8      c1845_0
 0001:00013FD8      c1845_2
 0001:00014010      c1845_3
 0001:00014020      c1849_0
 0001:000140D8      c1859_0
 0001:00014258      c1859_3
 0001:000140D8      c1859_4
 0001:00014278      c1863_0
 0001:00014570      c1883_0
 0001:000146C8      c1885_0
 0001:0001486C      c1899_0
 0001:000148BC      c1977_0
 0001:000148BC      c1977_3
 0001:00002CF4      c19_0
 0001:00000000      c1_0
 0001:0000354C      c23_0
 0001:000039A4      c27_0
 0001:0000AB68      c287_0
 0001:0000AB94      c289_0
 0001:0000ABA4      c291_0
 0001:00000150      c2_0
 0001:0000ABB4      c317_0
 0001:0000ACC8      c319_0
 0001:0000404C      c31_0
 0001:0000AD68      c325_0
 0001:0000AD88      c327_0
 0001:0000ADA0      c329_0
 0001:0000AE3C      c329_2
 0001:0000AE58      c331_0
 0001:0000AE5C      c335_0
 0001:0000B828      c355_0
 0001:0000BABC      c357_0
 0001:00004ACC      c35_0
 0001:0000BAC0      c361_0
 0001:0000504C      c37_0
 0001:0000BAC4      c500_0
 0001:0000BAE4      c504_0
 0001:0000BB08      c508_0
 0001:0000BB54      c510_0
 0001:0000BBE0      c512_0
 0001:0000BBF8      c526_0
 0001:0000BC34      c528_0
 0001:0000BC88      c534_0
 0001:0000BCE4      c536_0
 0001:0000BD54      c552_0
 0001:0000BDC0      c558_0
 0001:0000BDF4      c580_0
 0001:0000BE48      c586_0
 0001:0000BE60      c588_0
 0001:0000BEA0      c628_0
 0001:0000BF10      c632_0
 0001:0000C067      c632_3
 0001:0000C704      c636_0
 0001:0000C704      c636_4
 0001:0000C850      c638_0
 0001:0000C85C      c642_0
 0001:0000C998      c642_3
 0001:0000C9B0      c642_4
 0001:0000C9D8      c646_0
 0001:0000CA20      c648_0
 0001:0000CA44      c660_0
 0001:0000CACC      c664_0
 0001:0000CB14      c666_0
 0001:0000CB8C      c670_0
 0001:0000CD28      c676_0
 0001:0000CE44      c678_0
 0001:0000CE58      c696_0
 0001:0000CE90      c698_0
 0001:00005550      c69_0
 0001:00006AD8      c71_0
 0001:0000CEB0      c720_0
 0001:00008450      c73_0
 0001:0000CF14      c752_0
 0001:0000CF78      c756_0
 0001:000005B8      c7_0
 0001:0000CFF8      c818_0
 0001:0000D078      c824_0
 0001:0000D1A8      c840_0
 0001:0000D204      c844_0
 0001:0000D228      c852_0
 0001:0000D24C      c858_0
 0001:000095FC      c85_0
 0001:0000D328      c872_0
 0001:0000D34C      c906_0
 0001:0000D608      c908_0
 0001:0000D680      c912_0
 0001:0000D688      c914_0
 0001:00009EC4      c91_0
 0001:0000D828      c922_0
 0001:0000D938      c942_0
 0001:0000D95C      c968_0
 0001:0000E194      c976_0
 0001:0000A258      c97_0
 0001:00000B60      c9_0
 0002:000036F8      d1036_1
 0002:00003770      d1116_0
 0002:00003974      d1118_1
 0002:000039B0      d1120_1
 0002:00003A00      d1122_0
 0002:00003B00      d1144_1
 0002:00003C18      d1146_0
 0002:00003E78      d1148_1
 0002:000009F4      d11_1
 0002:00003EE0      d1278_1
 0002:00003FA0      d1334_1
 0002:00004008      d1336_1
 0002:00004070      d1338_0
 0002:00004074      d1392_0
 0002:00000E18      d13_1
 0002:000040F0      d1402_0
 0002:000040F8      d1440_1
 0002:00004100      d1466_1
 0002:00004108      d1468_1
 0002:0000411C      d1470_1
 0002:00004144      d1478_1
 0002:0000416C      d1480_1
 0002:00004194      d1538_1
 0002:000041DC      d1674_1
 0002:00004200      d1690_1
 0002:00004224      d1692_1
 0002:00004228      d1694_1
 0002:00004238      d1702_1
 0002:00004260      d1721_1
 0002:00004280      d1723_0
 0002:00004284      d1759_1
 0002:00004290      d1779_0
 0002:00004298      d1781_0
 0002:000042A0      d1783_1
 0002:000042F4      d1785_1
 0002:0000431C      d1787_1
 0002:00004340      d1841_0
 0002:00004344      d1843_0
 0002:00004348      d1845_1
 0002:00004368      d1849_1
 0002:0000436C      d1859_1
 0002:000043C0      d1863_1
 0002:00004420      d1881_0
 0002:00004424      d1883_1
 0002:00004428      d1977_1
 0002:00000F64      d19_1
 0002:00000098      d1_1
 0002:000010E0      d23_1
 0002:0000013C      d2_1
 0002:000025EC      d317_1
 0002:000025F0      d319_1
 0002:000011C0      d31_1
 0002:00002688      d329_1
 0002:000026A8      d335_1
 0002:000013E0      d35_1
 0002:000017C8      d37_1
 0002:000026E8      d630_0
 0002:000026EC      d632_1
 0002:00002A0C      d634_1
 0002:00002A48      d636_1
 0002:00002B2C      d642_1
 0002:00002B40      d678_1
 0002:000019AC      d69_1
 0002:00001B7C      d71_1
 0002:00001EFC      d73_1
 0002:00002B44      d758_0
 0002:000001CC      d7_1
 0002:00002B48      d830_0
 0002:00002FF8      d832_0
 0002:000030C4      d842_0
 0002:000030C8      d844_1
 0002:00002244      d85_1
 0002:000030CC      d908_1
 0002:000031F8      d940_1
 0002:00003674      d968_1
 0002:000024B8      d97_1
 0002:000002A0      d9_1
 0001:0000CA3B      invokeHnd()
 0001:0000CA20      jump()
 0001:0000AB94      operator delete(void *)
 0001:0000ABA4      operator delete[](void *)
 0001:0000C68C      std::terminate()
 0001:0000C6DC      std::unexpected()
 0004:00000000      t636_3

  Address         Publics by Value

 0001:00000000      c1_0
 0001:00000000      __acrtused
 0001:00000059      __GetExceptDLLinfo
 0001:0000005E      __isDLL
 0001:00000066      __getHInstance
 0001:00000140      ___System__GetTls
 0001:00000140      Sysinit::__linkproc__ __fastcall GetTls()
 0001:00000150      _m3d_get
 0001:00000150      c2_0
 0001:00000358      _m3d_free
 0001:00000432      _test_stat
 0001:000004AB      _main
 0001:000005B8      c7_0
 0001:000005B8      __m_copy
 0001:00000662      __v_copy
 0001:000006D9      _px_copy
 0001:0000073B      _m_move
 0001:00000888      _v_move
 0001:00000938      _mv_move
 0001:00000A36      _vm_move
 0001:00000B60      _err_list_attach
 0001:00000B60      c9_0
 0001:00000C4D      _err_list_free
 0001:00000C9C      _err_is_list_attached
 0001:00000CCD      _set_err_flag
 0001:00000CE0      _count_errs
 0001:00000CF3      _ev_err
 0001:00001161      _catch_FPE
 0001:00001178      c11_0
 0001:00001178      _skipjunk
 0001:000011D5      _m_finput
 0001:00001209      _im_finput
 0001:00001460      _bm_finput
 0001:000015B0      _px_finput
 0001:000015E4      _ipx_finput
 0001:0000177E      _bpx_finput
 0001:000018BE      _v_finput
 0001:000018F2      _ifin_vec
 0001:00001A83      _bfin_vec
 0001:00001B60      _setformat
 0001:00001B7F      _m_foutput
 0001:00001C95      _px_foutput
 0001:00001D2F      _v_foutput
 0001:00001DFF      _m_dump
 0001:00001F4F      _px_dump
 0001:00001FDB      _v_dump
 0001:000020C0      c13_0
 0001:000020C0      _m_get
 0001:00002228      _px_get
 0001:00002304      _v_get
 0001:000023DA      _m_free
 0001:0000248B      _px_free
 0001:0000251D      _v_free
 0001:000025AF      _m_resize
 0001:0000289D      _px_resize
 0001:0000298F      _v_resize
 0001:00002A8A      _v_get_vars
 0001:00002AB4      _iv_get_vars
 0001:00002ADE      _m_get_vars
 0001:00002B0D      _px_get_vars
 0001:00002B37      _v_resize_vars
 0001:00002B65      _iv_resize_vars
 0001:00002B93      _m_resize_vars
 0001:00002BC4      _px_resize_vars
 0001:00002BF2      _v_free_vars
 0001:00002C32      _iv_free_vars
 0001:00002C72      _px_free_vars
 0001:00002CB2      _m_free_vars
 0001:00002CF4      _px_inv
 0001:00002CF4      c19_0
 0001:00002D85      _px_mlt
 0001:00002E77      _px_vec
 0001:00003066      _pxinv_vec
 0001:00003188      _px_transp
 0001:00003275      _px_sign
 0001:000032DE      _px_cols
 0001:00003415      _px_rows
 0001:0000354C      c23_0
 0001:0000354C      _v_zero
 0001:00003581      _iv_zero
 0001:000035BC      _m_zero
 0001:00003617      _m_ident
 0001:00003676      _px_ident
 0001:000036B1      _mrand
 0001:00003740      _mrandlist
 0001:000037E3      _smrand
 0001:00003840      _v_rand
 0001:00003878      _m_rand
 0001:000038C1      _v_ones
 0001:00003907      _m_ones
 0001:0000395E      _v_count
 0001:000039A4      c27_0
 0001:000039A4      ___ip__
 0001:00003AA4      ___mltadd__
 0001:00003B74      ___smlt__
 0001:00003B9C      ___add__
 0001:00003BCB      ___sub__
 0001:00003BFA      ___zero__
 0001:00003C13      ___ip4__
 0001:00003DFB      ___lc4__
 0001:00003FAA      ___ma4__
 0001:0000404C      c31_0
 0001:0000404C      _iv_get
 0001:00004115      _iv_free
 0001:000041AA      _iv_resize
 0001:00004285      _iv_copy
 0001:000042D9      _iv_move
 0001:00004389      _iv_add
 0001:0000442C      _iv_sub
 0001:000044CF      _iv_foutput
 0001:00004579      _iv_finput
 0001:000045AD      _iiv_finput
 0001:00004737      _biv_finput
 0001:0000481D      _iv_dump
 0001:000048DF      _iv_sort
 0001:00004ACC      c35_0
 0001:00004ACC      _mem_attach_list
 0001:00004B62      _mem_free_vars
 0001:00004BAC      _mem_is_list_attached
 0001:00004BF5      _mem_dump_list
 0001:00004CBA      _mem_info_on
 0001:00004CCD      _mem_info_is_on
 0001:00004CD7      _mem_info_bytes
 0001:00004D2D      _mem_info_numvar
 0001:00004D84      _mem_info_file
 0001:00004E8C      _mem_bytes_list
 0001:00004F82      _mem_numvar_list
 0001:0000504C      c37_0
 0001:000051BB      _mem_stat_reg_list
 0001:00005288      _mem_stat_mark
 0001:000052BB      _mem_stat_free_list
 0001:00005422      _mem_stat_dump
 0001:00005514      _mem_stat_show_mark
 0001:0000551E      _mem_stat_reg_vars
 0001:00005550      c69_0
 0001:00005550      _bd_get
 0001:00005620      _bd_free
 0001:00005680      _bd_resize
 0001:000058F3      _bd_copy
 0001:00005A54      _band2mat
 0001:00005B5B      _mat2band
 0001:00005CA1      _bd_transp
 0001:00006175      _bdLUfactor
 0001:000063DA      _bdLUsolve
 0001:000065CC      _bdLDLfactor
 0001:000067A4      _bdLDLsolve
 0001:00006957      _bd_mv_mlt
 0001:00006AD8      _sp_get_val
 0001:00006AD8      c71_0
 0001:00006B68      _sp_set_val
 0001:00006D38      _sp_mv_mlt
 0001:00006E47      _sp_vm_mlt
 0001:00006F67      _sp_get
 0001:00007170      _sp_free
 0001:000072C6      _sp_copy
 0001:0000752F      _sp_col_access
 0001:0000760F      _sp_diag_access
 0001:0000766D      _sp_m2dense
 0001:00007726      _sp_add
 0001:00007901      _sp_sub
 0001:00007ADC      _sp_mltadd
 0001:00007CC3      _sp_smlt
 0001:00007D6C      _sp_zero
 0001:00007DDB      _sp_copy2
 0001:00008013      _sp_resize
 0001:000082BC      _sp_compact
 0001:000083AC      _sp_get_vars
 0001:000083DE      _sp_resize_vars
 0001:0000840F      _sp_free_vars
 0001:00008450      c73_0
 0001:00008450      _sprow_dump
 0001:00008509      _sprow_idx
 0001:0000857F      _sprow_get
 0001:0000865C      _sprow_xpd
 0001:00008826      _sprow_resize
 0001:00008966      _sprow_free
 0001:000089DB      _sprow_merge
 0001:00008B39      _sprow_copy
 0001:00008CAA      _sprow_mltadd
 0001:00008EC9      _sprow_add
 0001:000090E8      _sprow_sub
 0001:00009303      _sprow_smlt
 0001:00009406      _sprow_foutput
 0001:0000946C      _sprow_set_val
 0001:000095FC      _iter_std_info
 0001:000095FC      c85_0
 0001:00009644      _iter_std_stop_crit
 0001:0000967E      _iter_get
 0001:0000976A      _iter_free
 0001:000097DB      _iter_resize
 0001:0000989E      _iter_dump
 0001:0000999C      _iter_copy2
 0001:00009A6F      _iter_copy
 0001:00009B4B      _iter_gen_sym
 0001:00009C8B      _iter_gen_nonsym
 0001:00009DB3      _iter_gen_nonsym_posdef
 0001:00009EC4      c91_0
 0001:00009EC4      ___zconj__
 0001:00009EF0      ___zip__
 0001:00009FFC      ___zmltadd__
 0001:0000A114      ___zmlt__
 0001:0000A195      ___zadd__
 0001:0000A1E9      ___zsub__
 0001:0000A23D      ___zzero__
 0001:0000A258      _zv_zero
 0001:0000A258      c97_0
 0001:0000A28D      _zm_zero
 0001:0000A2D3      _zm_get
 0001:0000A439      _zv_get
 0001:0000A50C      _zm_free
 0001:0000A5BD      _zv_free
 0001:0000A64F      _zm_resize
 0001:0000A932      _zv_resize
 0001:0000AA2D      _zv_get_vars
 0001:0000AA57      _zm_get_vars
 0001:0000AA86      _zv_resize_vars
 0001:0000AAB4      _zm_resize_vars
 0001:0000AAE5      _zv_free_vars
 0001:0000AB25      _zm_free_vars
 0001:0000AB68      c287_0
 0001:0000AB68      _calloc
 0001:0000AB68      ___org_calloc
 0001:0000AB94      operator delete(void *)
 0001:0000AB94      ___org_delete
 0001:0000AB94      c289_0
 0001:0000ABA4      operator delete[](void *)
 0001:0000ABA4      ___org_deletea
 0001:0000ABA4      c291_0
 0001:0000ABB4      c317_0
 0001:0000ABB4      _virt_reserve
 0001:0000AC20      _virt_alloc
 0001:0000AC48      _virt_commit
 0001:0000AC94      _virt_decommit
 0001:0000ACAC      _virt_release
 0001:0000ACC8      c319_0
 0001:0000ACE8      ___CRTL_MEM_GetBorMemPtrs
 0001:0000AD64      ___CRTL_MEM_CheckBorMem
 0001:0000AD68      ___org_malloc
 0001:0000AD68      _malloc
 0001:0000AD68      c325_0
 0001:0000AD78      ___org_free
 0001:0000AD78      _free
 0001:0000AD88      ___org_realloc
 0001:0000AD88      c327_0
 0001:0000AD88      _realloc
 0001:0000ADA0      c329_0
 0001:0000ADA0      ___CRTL_MEM_Revector
 0001:0000AE3C      c329_2
 0001:0000AE48      __free_heaps
 0001:0000AE58      ___CRTL_MEM_UseBorMM
 0001:0000AE58      c331_0
 0001:0000AE5C      c335_0
 0001:0000B440      __internal_free
 0001:0000B5B0      __internal_malloc
 0001:0000B7B0      __phys_avail
 0001:0000B7C8      __internal_free_heaps
 0001:0000B828      c355_0
 0001:0000B828      ___org__expand
 0001:0000B828      __expand
 0001:0000BA08      __internal_realloc
 0001:0000BAA0      __msize
 0001:0000BAA0      ___org__msize
 0001:0000BABC      ___CRTL_VCL_Init
 0001:0000BABC      c357_0
 0001:0000BAC0      ___CRTL_VCLLIB_Linkage
 0001:0000BAC0      c361_0
 0001:0000BAC4      _memchr
 0001:0000BAC4      ___org_memchr
 0001:0000BAC4      c500_0
 0001:0000BAE4      _memcpy
 0001:0000BAE4      ___org_memcpy
 0001:0000BAE4      c504_0
 0001:0000BB08      c508_0
 0001:0000BB08      ___org_memmove
 0001:0000BB08      _memmove
 0001:0000BB54      c510_0
 0001:0000BB54      _memset
 0001:0000BB54      ___org_memset
 0001:0000BBE0      c512_0
 0001:0000BBE0      __wmemset
 0001:0000BBF8      c526_0
 0001:0000BBF8      _strcat
 0001:0000BBF8      ___org_strcat
 0001:0000BC34      _strchr
 0001:0000BC34      c528_0
 0001:0000BC34      ___org_strchr
 0001:0000BC88      _strlen
 0001:0000BC88      c534_0
 0001:0000BC88      ___org_strlen
 0001:0000BCE4      _strncat
 0001:0000BCE4      ___org_strncat
 0001:0000BCE4      c536_0
 0001:0000BD54      c552_0
 0001:0000BD54      _memcmp
 0001:0000BD54      ___org_memcmp
 0001:0000BDC0      c558_0
 0001:0000BDC0      ___org_strdup
 0001:0000BDC0      _strdup
 0001:0000BDF4      ___org_strstr
 0001:0000BDF4      c580_0
 0001:0000BDF4      _strstr
 0001:0000BE48      c586_0
 0001:0000BE48      _wcslen
 0001:0000BE60      _wcscpy
 0001:0000BE60      c588_0
 0001:0000BEA0      __InitExceptBlockLDTC
 0001:0000BEA0      c628_0
 0001:0000BED9      __ExitExceptBlock
 0001:0000BEE7      __ExceptionHandler
 0001:0000BF10      c632_0
 0001:0000C067      c632_3
 0001:0000C3C4      __typeIDname(tpid *)
 0001:0000C3FC      __isSameTypeID(tpid *, tpid *)
 0001:0000C4D8      __isCompatTypeID(tpid *, tpid *, int, tpid * *)
 0001:0000C5E8      __adjustClassAdr(void *, tpid *, tpid *)
 0001:0000C664      _InitTermAndUnexPtrs()
 0001:0000C68C      std::terminate()
 0001:0000C6DC      std::unexpected()
 0001:0000C704      c636_4
 0001:0000C704      c636_0
 0001:0000C730      ___call_terminate
 0001:0000C7A4      ___call_unexpected
 0001:0000C7DC      __ExceptInit
 0001:0000C828      __GetExceptDLLinfoInternal
 0001:0000C850      ___DefHandler
 0001:0000C850      c638_0
 0001:0000C85C      c642_0
 0001:0000C94C      __setexc
 0001:0000C968      __unsetexc
 0001:0000C978      __SetUserHandler
 0001:0000C98C      __unsetuserhandler
 0001:0000C998      __init_except
 0001:0000C998      c642_3
 0001:0000C9B0      __exit_except
 0001:0000C9B0      c642_4
 0001:0000C9C4      __InitDefaultHander
 0001:0000C9D8      c646_0
 0001:0000C9D8      __SetExceptionHandler
 0001:0000C9ED      __UnsetExceptionHandler
 0001:0000CA19      __UnwindException
 0001:0000CA20      jump()
 0001:0000CA20      c648_0
 0001:0000CA26      ___doGlobalUnwind
 0001:0000CA3B      invokeHnd()
 0001:0000CA44      c660_0
 0001:0000CA44      ___eof
 0001:0000CACC      c664_0
 0001:0000CACC      ___isatty
 0001:0000CAFC      ___isatty_osfhandle
 0001:0000CB14      ___lseek
 0001:0000CB14      c666_0
 0001:0000CB8C      c670_0
 0001:0000CBF8      ___read
 0001:0000CD28      c676_0
 0001:0000CD28      ___write
 0001:0000CE44      c678_0
 0001:0000CE58      __flushall
 0001:0000CE58      c696_0
 0001:0000CE90      __fputc
 0001:0000CE90      ___org__fputc
 0001:0000CE90      c698_0
 0001:0000CEB0      __rtl_read
 0001:0000CEB0      ___org__rtl_read
 0001:0000CEB0      c720_0
 0001:0000CEF8      __read
 0001:0000CEF8      ___org__read
 0001:0000CF14      __rtl_write
 0001:0000CF14      c752_0
 0001:0000CF14      ___org__rtl_write
 0001:0000CF5C      ___org__write
 0001:0000CF5C      __write
 0001:0000CF78      __allocbuf
 0001:0000CF78      c756_0
 0001:0000CFF8      _fflush
 0001:0000CFF8      ___org_fflush
 0001:0000CFF8      c818_0
 0001:0000D078      c824_0
 0001:0000D078      ___org_fgets
 0001:0000D078      _fgets
 0001:0000D1A8      c840_0
 0001:0000D1A8      __flushout
 0001:0000D204      __initfmode
 0001:0000D204      c844_0
 0001:0000D214      __initfileinfo
 0001:0000D228      c852_0
 0001:0000D228      _fprintf
 0001:0000D228      ___org_fprintf
 0001:0000D24C      ___fputn
 0001:0000D24C      c858_0
 0001:0000D328      c872_0
 0001:0000D328      _fscanf
 0001:0000D328      ___org_fscanf
 0001:0000D34C      __get_handle
 0001:0000D34C      c906_0
 0001:0000D38C      __dup_handle
 0001:0000D3F4      __free_handle
 0001:0000D4AC      __init_handles
 0001:0000D608      ___IOerror
 0001:0000D608      c908_0
 0001:0000D64C      ___DOSerror
 0001:0000D66C      ___NTerror
 0001:0000D680      ___org_isatty
 0001:0000D680      _isatty
 0001:0000D680      c912_0
 0001:0000D688      c914_0
 0001:0000D728      __fgetc
 0001:0000D728      ___org__fgetc
 0001:0000D740      _fgetc
 0001:0000D740      ___org_fgetc
 0001:0000D828      ___org_fputc
 0001:0000D828      c922_0
 0001:0000D828      _fputc
 0001:0000D938      c942_0
 0001:0000D938      _printf
 0001:0000D938      ___org_printf
 0001:0000D95C      c968_0
 0001:0000D95C      __scanner
 0001:0000E194      ___scantoint64
 0001:0000E194      c976_0
 0001:0000E3C0      c1000_0
 0001:0000E3EC      _sscanf
 0001:0000E3EC      ___org_sscanf
 0001:0000E410      ___org_vsscanf
 0001:0000E410      _vsscanf
 0001:0000E434      c1008_0
 0001:0000E434      __init_streams
 0001:0000E4F0      c1008_1
 0001:0000E4F0      __exit_streams
 0001:0000E54C      c1020_0
 0001:0000E54C      _ungetc
 0001:0000E54C      ___org_ungetc
 0001:0000E59C      c1036_0
 0001:0000E64C      ___vprinter
 0001:0000EF88      __xfflush
 0001:0000EF88      c1114_0
 0001:0000EFB0      c1120_0
 0001:0000EFB0      __win32DateTimeToPOSIX
 0001:0000F274      __getLocaleNumericInfo
 0001:0000F274      c1128_0
 0001:0000F2C8      c1136_0
 0001:0000F2C8      _isalnum
 0001:0000F2E0      _isascii
 0001:0000F2F4      _isalpha
 0001:0000F30C      _iscntrl
 0001:0000F320      _isdigit
 0001:0000F334      _isgraph
 0001:0000F34C      _islower
 0001:0000F360      _isprint
 0001:0000F378      _ispunct
 0001:0000F38C      _isspace
 0001:0000F3A0      _isupper
 0001:0000F3B4      _isxdigit
 0001:0000F3CC      c1138_0
 0001:0000F3CC      _iswalnum
 0001:0000F3E4      _iswascii
 0001:0000F3F8      _iswalpha
 0001:0000F410      _iswcntrl
 0001:0000F424      _iswdigit
 0001:0000F438      _iswgraph
 0001:0000F450      _iswlower
 0001:0000F464      _iswprint
 0001:0000F47C      _iswpunct
 0001:0000F490      _iswspace
 0001:0000F4A4      _iswupper
 0001:0000F4B8      _iswxdigit
 0001:0000F4D0      ___isctype
 0001:0000F4D0      c1140_0
 0001:0000F514      c1142_0
 0001:0000F514      ___iswctype
 0001:0000F56C      __setLocale32W
 0001:0000F56C      c1144_0
 0001:0000F61C      __setLocale32A
 0001:0000FAE4      __lockLocale
 0001:0000FAF0      __unlockLocale
 0001:0000FAFC      c1144_2
 0001:0000FAFC      __initLocale
 0001:0000FB00      c1144_3
 0001:0000FB00      __cleanLocale
 0001:0000FB6C      __getLocale
 0001:0000FDC4      __setNewCategories
 0001:0000FF80      __cleanCategories
 0001:0001032C      __setLocaleFromString
 0001:0001054C      __addCategoryName
 0001:000106EC      __allocAndGetValue
 0001:000106EC      c1148_0
 0001:00010748      __getShortValue
 0001:000107A4      __setCType
 0001:0001088C      __setMonetary
 0001:00010A0C      __setTime
 0001:00010E68      __setNumeric
 0001:00010EF0      __setCollate
 0001:00010EFC      c1150_0
 0001:00010EFC      __llocaleconv
 0001:00010F94      __lstrlwr
 0001:00010F94      c1168_0
 0001:00010FB8      __ltolower
 0001:00010FB8      c1180_0
 0001:0001100C      _mblen
 0001:0001100C      ___org_mblen
 0001:0001100C      c1188_0
 0001:00011088      _mbtowc
 0001:00011088      ___org_mbtowc
 0001:0001115C      _wctomb
 0001:0001115C      ___org_wctomb
 0001:000111D0      _mbstowcs
 0001:000111D0      ___org_mbstowcs
 0001:00011338      ___org_wcstombs
 0001:00011338      _wcstombs
 0001:000114DC      __llmul
 0001:000114DC      c1238_0
 0001:000114FF      __lldiv
 0001:00011577      __lludiv
 0001:000115C0      __llmod
 0001:0001163A      __llumod
 0001:00011688      __llshl
 0001:000116A4      __llshr
 0001:000116C0      __llushr
 0001:000116DC      c1268_0
 0001:000116DC      _ltoa
 0001:000116DC      ___org_ltoa
 0001:000116E4      c1278_0
 0001:000116E4      __pow10
 0001:0001186C      ___org_atol
 0001:0001186C      c1302_0
 0001:0001186C      _atol
 0001:000118D4      _atoi
 0001:000118D4      ___org_atoi
 0001:000118E4      __clear87
 0001:000118E4      c1314_0
 0001:000118F8      __control87
 0001:000118F8      c1328_0
 0001:00011928      ___realcvt
 0001:00011928      c1330_0
 0001:0001192E      ___nextreal
 0001:00011934      __scantod
 0001:0001193A      __scanrslt
 0001:00011940      c1334_0
 0001:00011958      c1336_0
 0001:00011970      c1358_0
 0001:00011970      _fabs
 0001:00011980      c1376_0
 0001:00011980      __fpreset
 0001:00011998      c1384_0
 0001:00011998      __fuildq
 0001:000119C8      c1386_0
 0001:000119C8      __fuistq
 0001:000119EC      __fxam
 0001:000119EC      c1388_0
 0001:00011A00      c1404_0
 0001:00011A00      ___int64toa
 0001:00011AB4      c1414_0
 0001:00011AB4      ___ldtrunc
 0001:00011BCC      ___longtoa
 0001:00011BCC      c1424_0
 0001:00011C40      ___utoa
 0001:00011C5C      c1432_0
 0001:00011C5C      _itoa
 0001:00011C5C      ___org_itoa
 0001:00011C8C      _ultoa
 0001:00011C8C      ___org_ultoa
 0001:00011CAC      __ltoa
 0001:00011CD4      c1436_0
 0001:00011CD4      ___org__matherr
 0001:00011CD4      __matherr
 0001:00011D00      c1438_0
 0001:00011D00      __matherrl
 0001:00011D00      ___org__matherrl
 0001:00011D30      c1440_0
 0001:00011D30      __initmatherr
 0001:00011D48      __qdiv10
 0001:00011D48      c1462_0
 0001:00011D70      c1464_0
 0001:00011D70      __qmul10
 0001:00011DA0      _srand
 0001:00011DA0      c1466_0
 0001:00011DBC      c1466_2
 0001:00011DC8      _rand
 0001:00011DE4      __lrand
 0001:00011E30      c1468_0
 0001:00012114      __cvt_init
 0001:0001212C      c1470_0
 0001:00012448      __cvt_initw
 0001:00012460      c1478_0
 0001:0001292C      __scan_init
 0001:00012944      c1480_0
 0001:00012E0C      __scan_initw
 0001:00012E24      c1524_0
 0001:00012E24      ___xcvt
 0001:000130F8      c1526_0
 0001:000130F8      ___xcvtw
 0001:000133EC      __setmbcp
 0001:000133EC      c1538_0
 0001:00013510      __getmbcp
 0001:00013518      c1538_3
 0001:00013518      __initMBCSTable
 0001:00013528      __ismbcspace
 0001:00013528      c1560_0
 0001:00013544      __mbsrchr
 0001:00013544      c1622_0
 0001:0001359C      c1674_0
 0001:000135E4      __assert
 0001:00013644      c1690_0
 0001:00013694      __ErrorMessageHelper
 0001:000136FC      c1694_0
 0001:00013754      __ErrorMessage
 0001:00013870      ___ErrorMessage
 0001:00013880      __ErrorExit
 0001:00013898      c1702_3
 0001:00013898      c1702_0
 0001:00013924      __abort
 0001:00013924      c1721_0
 0001:00013938      _abort
 0001:00013948      c1759_0
 0001:000139A0      _exit
 0001:000139B8      __exit
 0001:000139D0      __cexit
 0001:000139E0      __c_exit
 0001:000139F0      __init_wild_handlers
 0001:000139F0      c1767_0
 0001:00013A0C      c1769_0
 0001:00013A0C      __argv_default_expand
 0001:00013A20      c1771_0
 0001:00013A20      __wargv_default_expand
 0001:00013A34      __init_setargv_handlers
 0001:00013A34      c1777_0
 0001:00013A5C      c1783_0
 0001:00013A5C      c1783_3
 0001:00013A5C      __setargv
 0001:00013AE4      c1783_4
 0001:00013AE4      __exitargv
 0001:00013BC8      __handle_setargv
 0001:00013BC8      c1785_0
 0001:00013D20      __handle_exitargv
 0001:00013DB0      __handle_wsetargv
 0001:00013DB0      c1787_0
 0001:00013F44      __handle_wexitargv
 0001:00013FD8      c1845_2
 0001:00013FD8      c1845_0
 0001:00014010      c1845_3
 0001:00014020      c1849_0
 0001:00014020      _setjmp
 0001:00014056      _longjmp
 0001:000140D2      __DoLongJump__
 0001:000140D8      c1859_4
 0001:000140D8      c1859_0
 0001:0001410C      __expandblock
 0001:00014258      c1859_3
 0001:00014278      c1863_0
 0001:000144A0      _signal
 0001:00014500      ___org_raise
 0001:00014500      _raise
 0001:00014570      c1883_0
 0001:00014570      __terminate
 0001:00014580      __create_shmem
 0001:00014588      __init_exit_proc
 0001:0001465C      __cleanup
 0001:000146C8      __startup
 0001:000146C8      c1885_0
 0001:0001486C      ___CRTL_TLS_Alloc
 0001:0001486C      c1899_0
 0001:00014874      ___CRTL_TLS_Free
 0001:00014884      ___CRTL_TLS_GetValue
 0001:00014894      ___CRTL_TLS_SetValue
 0001:000148A8      ___CRTL_TLS_InitThread
 0001:000148B0      ___CRTL_TLS_ExitThread
 0001:000148B8      ___CRTL_TLS_GetInfo
 0001:000148BC      c1977_0
 0001:000148BC      c1977_3
 0001:000148E7      ___JumpToCatch__
 0001:00014B51      ___raiseDebuggerException
 0001:00014F0C      _ThrowExceptionLDTC(void *, void *, void *, void *, unsigned int, unsigned int, unsigned int, unsigned char *, void *)
 0001:00014F41      _ReThrowException(unsigned int, unsigned char *)
 0001:00014FAC      __Global_unwind
 0001:000150E8      _CatchCleanup()
 0001:00015618      __Local_unwind
 0001:0001562B      __Return_unwind
 0001:0001568C      ____ExceptionHandler
 0001:0001640A      __CurrExcContext
 0002:00000098      d1_1
 0002:000000DC      ___isGUI
 0002:00000114      ___isVCLPackage
 0002:00000115      ___isDLL
 0002:00000122      ___useDynamicTLS
 0002:00000123      __TLS_index
 0002:00000127      __TLS_index4
 0002:0000012B      __hInstance
 0002:00000130      ___CPPdebugHook_segment
 0002:00000130      ___CPPdebugHook
 0002:00000134      __PackageInfoTable
 0002:0000013C      d2_1
 0002:0000013C      _m3d_names
 0002:00000140      _m3d_free_funcs
 0002:000001CC      d7_1
 0002:000002A0      d9_1
 0002:000009F4      d11_1
 0002:00000E18      d13_1
 0002:00000F64      d19_1
 0002:000010E0      d23_1
 0002:000011C0      d31_1
 0002:000013E0      d35_1
 0002:00001464      _mem_connect
 0002:000017C8      d37_1
 0002:000019AC      d69_1
 0002:00001B7C      d71_1
 0002:00001EFC      d73_1
 0002:00002244      d85_1
 0002:000024B8      d97_1
 0002:000025EC      d317_1
 0002:000025F0      d319_1
 0002:00002688      d329_1
 0002:0000268C      __heap_redirector
 0002:000026A8      d335_1
 0002:000026A8      __virt_heap_size
 0002:000026AC      __virt_chunk_size
 0002:000026B0      __virt_chunk_size2
 0002:000026B4      __nv_heap_size
 0002:000026B8      __smalloc_threshold
 0002:000026BC      __virt_chunk_free
 0002:000026C0      __virt_chunk_free2
 0002:000026C4      __firstHeap
 0002:000026C8      __lastHeap
 0002:000026CC      __linktable
 0002:000026D0      __freeStart
 0002:000026DC      __rover
 0002:000026E4      ___allocated
 0002:000026E8      ___xxPersonality
 0002:000026E8      d630_0
 0002:000026EC      d632_1
 0002:00002A0C      ___terminatePTR
 0002:00002A0C      d634_1
 0002:00002A10      ___unexpectdPTR
 0002:00002A14      __chtbl__ std::terminate()
 0002:00002A34      __ectbl__ std::terminate()
 0002:00002A48      d636_1
 0002:00002A48      ___CPPexceptionList
 0002:00002A4C      ___exceptFlags
 0002:00002A50      ___throwFileName
 0002:00002A54      ___throwLineNumber
 0002:00002A58      ___throwExceptionName
 0002:00002A5C      ___exceptStaticBuffP
 0002:00002A60      ___exceptMemAllocVars
 0002:00002A64      ___ExceptStaticXbuff
 0002:00002AE4      __ExceptVarsSize
 0002:00002AF8      __chtbl__ __call_terminate()
 0002:00002B18      __ectbl__ __call_terminate()
 0002:00002B2C      d642_1
 0002:00002B2C      __stkchk
 0002:00002B40      __cfinfo_get
 0002:00002B40      d678_1
 0002:00002B44      __fileinfo
 0002:00002B44      d758_0
 0002:00002B48      __streams
 0002:00002B48      d830_0
 0002:00002FF8      __nfile
 0002:00002FF8      d832_0
 0002:00002FFC      __openfd
 0002:000030C4      d842_0
 0002:000030C4      __fmode
 0002:000030C8      __fmodeptr
 0002:000030C8      d844_1
 0002:000030CC      __dosErrorToSV
 0002:000030CC      d908_1
 0002:000031F8      d940_1
 0002:000031F8      __sys_errlist
 0002:000032BC      __sys_nerr
 0002:00003674      d968_1
 0002:000036F8      d1036_1
 0002:00003770      __chartype
 0002:00003770      d1116_0
 0002:00003974      __localeconvention
 0002:00003974      d1118_1
 0002:000039B0      d1120_1
 0002:00003A00      __lower
 0002:00003A00      d1122_0
 0002:00003B00      d1144_1
 0002:00003B00      ___mb_cur_max
 0002:00003B04      ___localeLock
 0002:00003C18      d1146_0
 0002:00003C18      _CMonetary
 0002:00003C4C      _CNumeric
 0002:00003C64      _CTimeDate
 0002:00003D28      _CLOCALE
 0002:00003D54      ___locale
 0002:00003E78      d1148_1
 0002:00003EE0      d1278_1
 0002:00003FA0      __realcvtptr
 0002:00003FA0      d1334_1
 0002:00003FA4      __nextrealptr
 0002:00003FA8      __scantodptr
 0002:00003FAC      __scanrsltptr
 0002:00004008      __realcvtwptr
 0002:00004008      d1336_1
 0002:0000400C      __nextrealwptr
 0002:00004010      __scanwtodptr
 0002:00004014      __scanwrsltptr
 0002:00004070      d1338_0
 0002:00004070      __default87
 0002:00004074      __huge_flt
 0002:00004074      d1392_0
 0002:00004078      __huge_dble
 0002:00004080      __huge_ldble
 0002:0000408A      __max_flt
 0002:0000408E      __max_dble
 0002:00004096      __max_ldble
 0002:000040A0      __indefinite
 0002:000040A4      __tiny_ldble
 0002:000040B0      ___ieee_64_p_inf
 0002:000040B8      ___ieee_64_n_inf
 0002:000040C0      ___ieee_64_p_nanq
 0002:000040C8      ___ieee_64_n_nanq
 0002:000040D0      ___ieee_64_p_nans
 0002:000040D8      ___ieee_64_n_nans
 0002:000040E0      ___ieee_64_p_zero
 0002:000040E8      ___ieee_64_n_zero
 0002:000040F0      __turboFloat
 0002:000040F0      d1402_0
 0002:000040F4      __floatconvert
 0002:000040F8      d1440_1
 0002:000040F8      __pmatherr
 0002:000040FC      __pmatherrl
 0002:00004100      d1466_1
 0002:00004108      d1468_1
 0002:0000411C      d1470_1
 0002:00004144      d1478_1
 0002:0000416C      d1480_1
 0002:00004194      __kalpha
 0002:00004194      d1538_1
 0002:00004196      __kpunct
 0002:000041DC      d1674_1
 0002:00004200      d1690_1
 0002:00004224      d1692_1
 0002:00004224      _errno
 0002:00004228      d1694_1
 0002:00004228      __messagefunc
 0002:0000422C      __messagefile
 0002:00004238      d1702_1
 0002:00004260      d1721_1
 0002:00004280      ___pCallAtExitProcs
 0002:00004280      d1723_0
 0002:00004284      __exitbuf
 0002:00004284      d1759_1
 0002:00004288      __exitfopen
 0002:0000428C      __exitopen
 0002:00004290      d1779_0
 0002:00004290      __setargv_ptr
 0002:00004294      __exitargv_ptr
 0002:00004298      __wsetargv_ptr
 0002:00004298      d1781_0
 0002:0000429C      __wexitargv_ptr
 0002:000042A0      d1783_1
 0002:000042A0      __setargv__
 0002:000042F4      __cmdline_escapes
 0002:000042F4      d1785_1
 0002:0000431C      d1787_1
 0002:00004340      __argv_expand_ptr
 0002:00004340      d1841_0
 0002:00004344      d1843_0
 0002:00004344      __wargv_expand_ptr
 0002:00004348      __argv0
 0002:00004348      d1845_1
 0002:00004368      d1849_1
 0002:0000436C      __setenvp__
 0002:0000436C      d1859_1
 0002:000043C0      d1863_1
 0002:00004420      __isWindows
 0002:00004420      d1881_0
 0002:00004424      d1883_1
 0002:00004428      d1977_1
 0002:00004428      ___debuggerDisableTerminateCallback
 0003:00000000      b2_2
 0003:0000000C      _restart
 0003:0000000C      b9_2
 0003:0000002C      b11_2
 0003:00000080      b23_2
 0003:00000160      b31_2
 0003:000001B4      b35_2
 0003:00000204      b37_2
 0003:000021D4      b71_2
 0003:000021E0      b319_2
 0003:000021E0      __bormm_pfn_FreeMem
 0003:000021E4      __bormm_pfn_GetMem
 0003:000021E8      __bormm_pfn_ReallocMem
 0003:000021EC      __bormm_pfn_HeapAddRef
 0003:000021F0      __bormm_pfn_HeapRelease
 0003:000021F8      b632_2
 0003:00002608      b636_2
 0003:00002608      __DestructorCountPtr
 0003:00002610      b642_2
 0003:00002610      __HandlerPtr
 0003:00002614      __UserHandlerPtr
 0003:00002618      b832_1
 0003:00002618      __pidtab
 0003:000026E0      __handles
 0003:000027A8      b908_2
 0003:000027A8      __doserrno
 0003:000027AC      b914_1
 0003:000027B0      b1538_2
 0003:000027B0      __mbctype
 0003:000028B4      __mbcsCodePage
 0003:000028B8      b1674_2
 0003:000029B8      b1690_2
 0003:000029D4      b1702_2
 0003:000029D4      __ostype
 0003:000029D8      b1783_2
 0003:000029D8      __argv
 0003:000029E4      b1785_2
 0003:000029E8      b1787_2
 0003:000029EC      __environ
 0003:000029EC      b1859_2
 0003:000029F4      __envsize
 0003:000029F8      __env_lock
 0003:000029FC      __C0argc
 0003:000029FC      b1881_1
 0003:00002A00      __C0argv
 0003:00002A04      __C0environ
 0003:00002A08      __oscmd
 0003:00002A0C      __osenv
 0003:00002A10      __argc
 0003:00002A14      __dll_table
 0003:00002A1C      __ExcRegPtr
 0003:00002A20      __wosenv
 0003:00002A24      __woscmd
 0003:00002A28      __wC0argv
 0003:00002A2C      __wC0environ
 0003:00002A30      __exe_table
 0003:00002A38      __stkbase
 0003:00002A3C      b1977_2
 0003:00002A40      ___pCPPdebugHook
 0004:00000000      ___xxInfo
 0004:00000000      t636_3
