EXPORTS
    _Z12init_genrandm @1
    _Z13Moro_NormSInvd @2
    _Z13genrand_int31v @3
    _Z13genrand_int32v @4
    _Z13genrand_real1v @5
    _Z13genrand_real2v @6
    _Z13genrand_real3v @7
    _Z13genrand_res53v @8
    _Z13init_by_arrayPmi @9
    _ZN10ParamGrain13GetNGrainInitEv @10
    _ZN10ParamGrain13GetParamNamesEv @11
    _ZN10ParamGrain13SetNGrainInitEd @12
    _ZN10ParamGrain13SetParamGrainEdddddddd @13
    _ZN10ParamGrain14GetDMGrainInitEv @14
    _ZN10ParamGrain14GetFirstDoubleESs @15
    _ZN10ParamGrain14SetDMGrainInitEd @16
    _ZN10ParamGrain4CopyEPS_ @17
    _ZN10ParamGrain4GetGEv @18
    _ZN10ParamGrain4GetPEv @19
    _ZN10ParamGrain4SetGEd @20
    _ZN10ParamGrain4SetPEd @21
    _ZN10ParamGrain5GetTTEv @22
    _ZN10ParamGrain5SetTTEd @23
    _ZN10ParamGrain6RandomEiPS_S0_ @24
    _ZN10ParamGrain6SetNNPEPS_ @25
    _ZN10ParamGrain7GetBetaEv @26
    _ZN10ParamGrain7GetSinkEv @27
    _ZN10ParamGrain7SetBetaEd @28
    _ZN10ParamGrain7SetSinkEd @29
    _ZN10ParamGrain8GetAlphaEv @30
    _ZN10ParamGrain8GetTTExpEv @31
    _ZN10ParamGrain8SetAlphaEd @32
    _ZN10ParamGrain8SetTTExpEd @33
    _ZN10ParamGrain9GetParamsEv @34
    _ZN10ParamGrain9GetTTinitEv @35
    _ZN10ParamGrain9SetTTinitEd @36
    _ZN10ParamGrainC1ESsSs @37
    _ZN10ParamGrainC1Ev @38
    _ZN10ParamGrainC2ESsSs @39
    _ZN10ParamGrainC2Ev @40
    _ZN10ParamGrainD0Ev @41
    _ZN10ParamGrainD1Ev @42
    _ZN10ParamGrainD2Ev @43
    _ZN10ParamPlant13SetParamPlantEd @44
    _ZN10ParamPlant14GetConcNmobMinEv @45
    _ZN10ParamPlant14GetFirstDoubleESs @46
    _ZN10ParamPlant14SetConcNmobMinEd @47
    _ZN10ParamPlant4CopyEPS_ @48
    _ZN10ParamPlant6RandomEiPS_S0_ @49
    _ZN10ParamPlant6SetNNPEPS_ @50
    _ZN10ParamPlantC1ESsSsSsSsSsSsSsSsSsiSsSsiSsSsiSsSsiSsSsiSs @51
    _ZN10ParamPlantC1Ev @52
    _ZN10ParamPlantC2ESsSsSsSsSsSsSsSsSsiSsSsiSsSsiSsSsiSsSsiSs @53
    _ZN10ParamPlantC2Ev @54
    _ZN10ParamPlantD0Ev @55
    _ZN10ParamPlantD1Ev @56
    _ZN10ParamPlantD2Ev @57
    _ZN11Environment11InterpolLinEiSt6vectorIdSaIdEES2_ @58
    _ZN11Environment11ThermalTimeEidii @59
    _ZN11Environment3TreEi @60
    _ZN11Environment4PAR0Eii @61
    _ZN11Environment4PARsEiiiiSt6vectorIiSaIiEES0_IS0_IdSaIdEESaIS4_EEdS4_ @62
    _ZN11Environment8GetNsoilEi @63
    _ZN11EnvironmentC1ESsSsSsSs @64
    _ZN11EnvironmentC1Ev @65
    _ZN11EnvironmentC2ESsSsSsSs @66
    _ZN11EnvironmentC2Ev @67
    _ZN11EnvironmentD0Ev @68
    _ZN11EnvironmentD1Ev @69
    _ZN11EnvironmentD2Ev @70
    _ZN11ParamEntity10GetDEGCOEFEv @71
    _ZN11ParamEntity10GetDMrems0Ev @72
    _ZN11ParamEntity10SetDEGCOEFEd @73
    _ZN11ParamEntity10SetDMrems0ERKSt6vectorIdSaIdEE @74
    _ZN11ParamEntity11GetLengths0Ev @75
    _ZN11ParamEntity11GetSYNTCOEFEv @76
    _ZN11ParamEntity11GetTTinits0Ev @77
    _ZN11ParamEntity11SetLengths0ERKSt6vectorIdSaIdEE @78
    _ZN11ParamEntity11SetSYNTCOEFEd @79
    _ZN11ParamEntity11SetTTinits0ERKSt6vectorIdSaIdEE @80
    _ZN11ParamEntity12GetDEGDMCOEFEv @81
    _ZN11ParamEntity12GetNstructs0Ev @82
    _ZN11ParamEntity12SetDEGDMCOEFEd @83
    _ZN11ParamEntity12SetNstructs0ERKSt6vectorIdSaIdEE @84
    _ZN11ParamEntity13GetDMstructs0Ev @85
    _ZN11ParamEntity13GetParamNamesEv @86
    _ZN11ParamEntity13SetDMstructs0ERKSt6vectorIdSaIdEE @87
    _ZN11ParamEntity14GetFirstDoubleESs @88
    _ZN11ParamEntity14SetParamEntityEddddddddddddddd @89
    _ZN11ParamEntity17GetInsertionAngleEv @90
    _ZN11ParamEntity17SetInsertionAngleEd @91
    _ZN11ParamEntity4CopyEPS_ @92
    _ZN11ParamEntity4GetPEv @93
    _ZN11ParamEntity4SetPEd @94
    _ZN11ParamEntity5GetK1Ev @95
    _ZN11ParamEntity5GetK2Ev @96
    _ZN11ParamEntity5SetK1Ed @97
    _ZN11ParamEntity5SetK2Ed @98
    _ZN11ParamEntity6GetPm1Ev @99
    _ZN11ParamEntity6GetPm2Ev @100
    _ZN11ParamEntity6RandomEiPS_S0_ @101
    _ZN11ParamEntity6SetNNPEPS_ @102
    _ZN11ParamEntity6SetPm1Ed @103
    _ZN11ParamEntity6SetPm2Ed @104
    _ZN11ParamEntity7GetBetaEv @105
    _ZN11ParamEntity7GetPeffEv @106
    _ZN11ParamEntity7GetSinkEv @107
    _ZN11ParamEntity7SetBetaEd @108
    _ZN11ParamEntity7SetPeffEd @109
    _ZN11ParamEntity7SetSinkEd @110
    _ZN11ParamEntity8GetAlphaEv @111
    _ZN11ParamEntity8GetNbRowEv @112
    _ZN11ParamEntity8GetNphs0Ev @113
    _ZN11ParamEntity8GetTTExpEv @114
    _ZN11ParamEntity8SetAlphaEd @115
    _ZN11ParamEntity8SetNphs0ERKSt6vectorIdSaIdEE @116
    _ZN11ParamEntity8SetTTExpEd @117
    _ZN11ParamEntity9AddEntityEddddddd @118
    _ZN11ParamEntity9GetAreas0Ev @119
    _ZN11ParamEntity9GetParamsEv @120
    _ZN11ParamEntity9GetPdeathEv @121
    _ZN11ParamEntity9SetAreas0ERKSt6vectorIdSaIdEE @122
    _ZN11ParamEntity9SetPdeathEd @123
    _ZN11ParamEntityC1ESsSsi @124
    _ZN11ParamEntityC1Ev @125
    _ZN11ParamEntityC2ESsSsi @126
    _ZN11ParamEntityC2Ev @127
    _ZN11ParamEntityD0Ev @128
    _ZN11ParamEntityD1Ev @129
    _ZN11ParamEntityD2Ev @130
    _ZN18SolvDifferentialEqC1ERKS_ @131
    _ZN18SolvDifferentialEqC1Ev @132
    _ZN18SolvDifferentialEqC2ERKS_ @133
    _ZN18SolvDifferentialEqC2Ev @134
    _ZN18SolvDifferentialEqD0Ev @135
    _ZN18SolvDifferentialEqD1Ev @136
    _ZN18SolvDifferentialEqD2Ev @137
    _ZN4Root10ImportRootEdiddd @138
    _ZN4Root11GetNstructsEv @139
    _ZN4Root11InitialRootEv @140
    _ZN4Root11NremDegRateEdd @141
    _ZN4Root12DMremDegRateEdd @142
    _ZN4Root12GetDMstructsEv @143
    _ZN4Root13ComputeDemandEd @144
    _ZN4Root13ImportRootPotEdd @145
    _ZN4Root13NremSynthRateEdd @146
    _ZN4Root20ComputeRemobilizedDMEdd @147
    _ZN4Root6AffichESt6vectorIdSaIdEES2_Ss @148
    _ZN4Root7CeffectEdi @149
    _ZN4Root7NeffectEd @150
    _ZN4Root7NinfluxEdddddd @151
    _ZN4Root8ActuNremEdddddd @152
    _ZN4Root8GetNremsEv @153
    _ZN4Root9ActuDMremEdddd @154
    _ZN4Root9GetDMremsEv @155
    _ZN4Root9ResetRootEv @156
    _ZN4RootC1ESsSs @157
    _ZN4RootC1Ev @158
    _ZN4RootC2ESsSs @159
    _ZN4RootC2Ev @160
    _ZN4RootD0Ev @161
    _ZN4RootD1Ev @162
    _ZN4RootD2Ev @163
    _ZN5Grain10GetDMgrainEv @164
    _ZN5Grain10GetNgrainsEv @165
    _ZN5Grain10NSynthRateEdd @166
    _ZN5Grain10ResetGrainEv @167
    _ZN5Grain11ActuDryMassEddd @168
    _ZN5Grain11ExportGrainEddddddd @169
    _ZN5Grain12InitialGrainEv @170
    _ZN5Grain13ComputeDemandEd @171
    _ZN5Grain14ExportGrainPotEddd @172
    _ZN5Grain6AffichESt6vectorIdSaIdEESs @173
    _ZN5Grain6GetDMsEv @174
    _ZN5Grain8GetNPotsEv @175
    _ZN5Grain9ActuGrainEdddddddd @176
    _ZN5Grain9GetNgrainEv @177
    _ZN5GrainC1ESsSsSs @178
    _ZN5GrainC1Ev @179
    _ZN5GrainC2ESsSsSs @180
    _ZN5GrainC2Ev @181
    _ZN5GrainD0Ev @182
    _ZN5GrainD1Ev @183
    _ZN5GrainD2Ev @184
    _ZN5Plant10HeightVissEi @185
    _ZN5Plant10ResetPlantEv @186
    _ZN5Plant11ComputeNmobESt6vectorIiSaIiEEdS0_IS0_IdSaIdEESaIS4_EEddd @187
    _ZN5Plant11TypeToClassEi @188
    _ZN5Plant12ActuPlantExtEiidSt6vectorIS0_IdSaIdEESaIS2_EE @189
    _ZN5Plant12InitialPlantEi @190
    _ZN5Plant13ComputeDemandESt6vectorIiSaIiEEd @191
    _ZN5Plant13Modify_ParamsEPS_i @192
    _ZN5Plant14ActuRowExposedESt6vectorIiSaIiEE @193
    _ZN5Plant15InitialPlantExtEidSt6vectorIS0_IdSaIdEESaIS2_EEd @194
    _ZN5Plant17ComputeDMGreenTotESt6vectorIiSaIiEE @195
    _ZN5Plant17ComputeProductionESt6vectorIiSaIiEES0_IS0_IdSaIdEESaIS4_EEiid @196
    _ZN5Plant18SetAllParamsVectorEv @197
    _ZN5Plant19ComputeAreaGreenTotESt6vectorIiSaIiEE @198
    _ZN5Plant19ComputeVisibleAreasESt6vectorIiSaIiEE @199
    _ZN5Plant19HeightPreviousOrganEii @200
    _ZN5Plant20ComputeRemobilizedDMESt6vectorIiSaIiEEdd @201
    _ZN5Plant21MeanHeightExposedPartEii @202
    _ZN5Plant29ComputeOrganHeightMaxFromSoilESt6vectorIiSaIiEE @203
    _ZN5Plant4CopyEPS_ @204
    _ZN5Plant4nrowEi @205
    _ZN5Plant6AffichESsi @206
    _ZN5Plant6RandomEiP10ParamPlantS1_P8ParamEnvS3_P10ParamGrainS5_P9ParamRootS7_P11ParamEntityS9_S9_S9_S9_S9_S9_S9_S9_S9_ @207
    _ZN5Plant6SetNNPEP10ParamPlantP8ParamEnvP10ParamGrainP9ParamRootP11ParamEntityS9_S9_S9_S9_ @208
    _ZN5Plant8ConcNmobEdd @209
    _ZN5Plant8CumulGAIEiSt6vectorIS0_IdSaIdEESaIS2_EE @210
    _ZN5Plant8GAI_cumsEii @211
    _ZN5Plant9ActuPlantEii @212
    _ZN5PlantC1ERK5GrainRK4RootRK11EnvironmentRK6EntitySB_SB_SB_SB_ @213
    _ZN5PlantC1ESsSsSsSsSsSsSsSsSsiSsSsiSsSsiSsSsiSsSsiSsSs @214
    _ZN5PlantC1Ev @215
    _ZN5PlantC2ERK5GrainRK4RootRK11EnvironmentRK6EntitySB_SB_SB_SB_ @216
    _ZN5PlantC2ESsSsSsSsSsSsSsSsSsiSsSsiSsSsiSsSsiSsSsiSsSs @217
    _ZN5PlantC2Ev @218
    _ZN5PlantD0Ev @219
    _ZN5PlantD1Ev @220
    _ZN5PlantD2Ev @221
    _ZN6Entity10GetDMremssEv @222
    _ZN6Entity10GetPhotossEv @223
    _ZN6Entity10NphDegRateEdd @224
    _ZN6Entity11ActuDryMassEidddd @225
    _ZN6Entity11ComputeSinkEdd @226
    _ZN6Entity11GetTTinitssEv @227
    _ZN6Entity11ResetEntityEv @228
    _ZN6Entity11VisibleAreaEid @229
    _ZN6Entity12ActuNphM2MaxEiddddSt6vectorIdSaIdEEdd @230
    _ZN6Entity12ActuNstructsEidSt6vectorIdSaIdEEddd @231
    _ZN6Entity12GetNstructssEv @232
    _ZN6Entity12NphSynthRateEdddd @233
    _ZN6Entity13ComputeDemandEid @234
    _ZN6Entity13GetDMstructssEv @235
    _ZN6Entity13GetNphM2MaxssEv @236
    _ZN6Entity13InitialEntityEv @237
    _ZN6Entity13VisibleLengthEiidd @238
    _ZN6Entity14ActuAreaGreensEiddddSt6vectorIdSaIdEEdd @239
    _ZN6Entity14DeltaAreaGreenEddddi @240
    _ZN6Entity14GetAreaGreenssEv @241
    _ZN6Entity15GetAreaGreenTotEi @242
    _ZN6Entity16NstructSynthRateEddd @243
    _ZN6Entity17ComputeProductionEiSt6vectorIdSaIdEEiid @244
    _ZN6Entity17GetNphSynthRatessEv @245
    _ZN6Entity19GetDMremSynthRatessEv @246
    _ZN6Entity20ComputeRemobilizedDMEidd @247
    _ZN6Entity21GetNphloemSynthRatessEv @248
    _ZN6Entity26InitializeAreaGreensNm2MaxEiSt6vectorIdSaIdEE @249
    _ZN6Entity4PmaxEdd @250
    _ZN6Entity5PhotoEddd @251
    _ZN6Entity6AffichESt6vectorIdSaIdEES2_SsiSs @252
    _ZN6Entity7DMGreenEi @253
    _ZN6Entity8ActuNphsEiddddSt6vectorIdSaIdEEdd @254
    _ZN6Entity8GetNbRowEv @255
    _ZN6Entity8GetNphssEv @256
    _ZN6Entity8NphInputEiddddddd @257
    _ZN6Entity8NphM2MinEdi @258
    _ZN6Entity9DMDegRateEdd @259
    _ZN6EntityC1ERKS_ @260
    _ZN6EntityC1ESsSsiSs @261
    _ZN6EntityC1Ev @262
    _ZN6EntityC2ESsSsiSs @263
    _ZN6EntityC2Ev @264
    _ZN6EntityD0Ev @265
    _ZN6EntityD1Ev @266
    _ZN6EntityD2Ev @267
    _ZN8ParamEnv11GetCoef_ExtEv @268
    _ZN8ParamEnv11SetCoef_ExtEd @269
    _ZN8ParamEnv11SetParamEnvEdd @270
    _ZN8ParamEnv12GetTimeSoilsEv @271
    _ZN8ParamEnv13GetParamNamesEv @272
    _ZN8ParamEnv14GetFirstDoubleESs @273
    _ZN8ParamEnv15GetTransmissionEv @274
    _ZN8ParamEnv15SetTransmissionEd @275
    _ZN8ParamEnv4CopyEPS_ @276
    _ZN8ParamEnv6RandomEiPS_S0_ @277
    _ZN8ParamEnv6SetNNPEPS_ @278
    _ZN8ParamEnv7GetDaysEv @279
    _ZN8ParamEnv7GetTresEv @280
    _ZN8ParamEnv8GetPAR0sEv @281
    _ZN8ParamEnv9GetNsoilsEv @282
    _ZN8ParamEnv9GetParamsEv @283
    _ZN8ParamEnvC1ESsSsSsSs @284
    _ZN8ParamEnvC1Ev @285
    _ZN8ParamEnvC2ESsSsSsSs @286
    _ZN8ParamEnvC2Ev @287
    _ZN8ParamEnvD0Ev @288
    _ZN8ParamEnvD1Ev @289
    _ZN8ParamEnvD2Ev @290
    _ZN8Sim_base10Get_randUGEv @291
    _ZN8Sim_base11Get_NbSim_iEv @292
    _ZN8Sim_base11Get_NbSim_rEv @293
    _ZN8Sim_base11Get_sim_SRCEv @294
    _ZN8Sim_base11Get_sim_epsEv @295
    _ZN8Sim_base11Get_sim_sigEv @296
    _ZN8Sim_base11Get_sim_sobEv @297
    _ZN8Sim_base11Get_write_YEv @298
    _ZN8Sim_base12Get_write_R2Ev @299
    _ZN8Sim_base13Get_write_SRCEv @300
    _ZN8Sim_base14Get_sim_sobS_iEv @301
    _ZN8Sim_base14Get_sim_srcepsEv @302
    _ZN8Sim_base15Get_sim_sobST_iEv @303
    _ZN8Sim_base15Get_sim_sobS_ijEv @304
    _ZN8Sim_base16Get_sim_sobST_ijEv @305
    _ZN8Sim_base8read_simESs @306
    _ZN8Sim_base8read_simEv @307
    _ZN8Sim_base9Get_SY_DMEv @308
    _ZN8Sim_base9Get_sim_iEv @309
    _ZN8Sim_base9Get_sim_rEv @310
    _ZN8Sim_baseC1ESs @311
    _ZN8Sim_baseC1Ev @312
    _ZN8Sim_baseC2ESs @313
    _ZN8Sim_baseC2Ev @314
    _ZN8Sim_baseD1Ev @315
    _ZN8Sim_baseD2Ev @316
    _ZN9ParamRoot10GetDEGCOEFEv @317
    _ZN9ParamRoot10GetQONDMINEv @318
    _ZN9ParamRoot10SetDEGCOEFEd @319
    _ZN9ParamRoot10SetQONDMINEd @320
    _ZN9ParamRoot11GetNremInitEv @321
    _ZN9ParamRoot11GetNsoilMinEv @322
    _ZN9ParamRoot11SetNremInitEd @323
    _ZN9ParamRoot11SetNsoilMinEd @324
    _ZN9ParamRoot12GetDEGDMCOEFEv @325
    _ZN9ParamRoot12GetDMremInitEv @326
    _ZN9ParamRoot12SetDEGDMCOEFEd @327
    _ZN9ParamRoot12SetDMremInitEd @328
    _ZN9ParamRoot12SetParamRootEddddddddddddddd @329
    _ZN9ParamRoot13GetParamNamesEv @330
    _ZN9ParamRoot14GetFirstDoubleESs @331
    _ZN9ParamRoot14GetNstructInitEv @332
    _ZN9ParamRoot14SetNstructInitEd @333
    _ZN9ParamRoot15GetDMstructInitEv @334
    _ZN9ParamRoot15SetDMstructInitEd @335
    _ZN9ParamRoot4CopyEPS_ @336
    _ZN9ParamRoot4GetPEv @337
    _ZN9ParamRoot4SetPEd @338
    _ZN9ParamRoot6RandomEiPS_S0_ @339
    _ZN9ParamRoot6SetNNPEPS_ @340
    _ZN9ParamRoot7GetBetaEv @341
    _ZN9ParamRoot7GetSinkEv @342
    _ZN9ParamRoot7GetUMAXEv @343
    _ZN9ParamRoot7SetBetaEd @344
    _ZN9ParamRoot7SetSinkEd @345
    _ZN9ParamRoot7SetUMAXEd @346
    _ZN9ParamRoot8GetAlphaEv @347
    _ZN9ParamRoot8GetBETA1Ev @348
    _ZN9ParamRoot8GetBETA2Ev @349
    _ZN9ParamRoot8GetTTExpEv @350
    _ZN9ParamRoot8SetAlphaEd @351
    _ZN9ParamRoot8SetBETA1Ed @352
    _ZN9ParamRoot8SetBETA2Ed @353
    _ZN9ParamRoot8SetTTExpEd @354
    _ZN9ParamRoot9GetKroot1Ev @355
    _ZN9ParamRoot9GetKroot2Ev @356
    _ZN9ParamRoot9GetParamsEv @357
    _ZN9ParamRoot9GetTTinitEv @358
    _ZN9ParamRoot9SetKroot1Ed @359
    _ZN9ParamRoot9SetKroot2Ed @360
    _ZN9ParamRoot9SetTTinitEd @361
    _ZN9ParamRootC1ESs @362
    _ZN9ParamRootC1Ev @363
    _ZN9ParamRootC2ESs @364
    _ZN9ParamRootC2Ev @365
    _ZN9ParamRootD0Ev @366
    _ZN9ParamRootD1Ev @367
    _ZN9ParamRootD2Ev @368
    _ZNSt6vectorIS_IS_IdSaIdEESaIS1_EESaIS3_EE13_M_insert_auxEN9__gnu_cxx17__normal_iteratorIPS3_S5_EERKS3_ @369
    _ZNSt6vectorIS_IS_IdSaIdEESaIS1_EESaIS3_EE5eraseEN9__gnu_cxx17__normal_iteratorIPS3_S5_EES9_ @370
    _ZNSt6vectorIS_IS_IdSaIdEESaIS1_EESaIS3_EEaSERKS5_ @371
    _ZNSt6vectorIS_IdSaIdEESaIS1_EE13_M_insert_auxEN9__gnu_cxx17__normal_iteratorIPS1_S3_EERKS1_ @372
    _ZNSt6vectorIS_IdSaIdEESaIS1_EE5eraseEN9__gnu_cxx17__normal_iteratorIPS1_S3_EES7_ @373
    _ZNSt6vectorIS_IdSaIdEESaIS1_EEC1ERKS2_ @374
    _ZNSt6vectorIS_IdSaIdEESaIS1_EEC1ERKS3_ @375
    _ZNSt6vectorIS_IdSaIdEESaIS1_EED1Ev @376
    _ZNSt6vectorIS_IdSaIdEESaIS1_EEaSERKS3_ @377
    _ZNSt6vectorIS_IiSaIiEESaIS1_EE13_M_insert_auxEN9__gnu_cxx17__normal_iteratorIPS1_S3_EERKS1_ @378
    _ZNSt6vectorIS_IiSaIiEESaIS1_EE5eraseEN9__gnu_cxx17__normal_iteratorIPS1_S3_EES7_ @379
    _ZNSt6vectorIS_IiSaIiEESaIS1_EEaSERKS3_ @380
    _ZNSt6vectorISsSaISsEE13_M_insert_auxEN9__gnu_cxx17__normal_iteratorIPSsS1_EERKSs @381
    _ZNSt6vectorISsSaISsEE9push_backERKSs @382
    _ZNSt6vectorISsSaISsEEC1ERKS1_ @383
    _ZNSt6vectorISsSaISsEEaSERKS1_ @384
    _ZNSt6vectorIdSaIdEE13_M_assign_auxIN9__gnu_cxx17__normal_iteratorIPdS1_EEEEvT_S7_St20forward_iterator_tag @385
    _ZNSt6vectorIdSaIdEE13_M_insert_auxEN9__gnu_cxx17__normal_iteratorIPdS1_EERKd @386
    _ZNSt6vectorIdSaIdEE5eraseEN9__gnu_cxx17__normal_iteratorIPdS1_EES5_ @387
    _ZNSt6vectorIdSaIdEE9push_backERKd @388
    _ZNSt6vectorIdSaIdEEC1ERKS0_ @389
    _ZNSt6vectorIdSaIdEEC1ERKS1_ @390
    _ZNSt6vectorIdSaIdEED1Ev @391
    _ZNSt6vectorIdSaIdEEaSERKS1_ @392
    _ZNSt6vectorIdSaIdEEixEj @393
    _ZNSt6vectorIiSaIiEE13_M_insert_auxEN9__gnu_cxx17__normal_iteratorIPiS1_EERKi @394
    _ZNSt6vectorIiSaIiEE5eraseEN9__gnu_cxx17__normal_iteratorIPiS1_EES5_ @395
    _ZNSt6vectorIiSaIiEEC1ERKS0_ @396
    _ZNSt6vectorIiSaIiEEC1ERKS1_ @397
    _ZNSt6vectorIiSaIiEED1Ev @398
    _ZNSt6vectorIiSaIiEEaSERKS1_ @399
    _ZStplIcSt11char_traitsIcESaIcEESbIT_T0_T1_EPKS3_RKS6_ @400
    _ZStplIcSt11char_traitsIcESaIcEESbIT_T0_T1_ERKS6_PKS3_ @401
    _ZStplIcSt11char_traitsIcESaIcEESbIT_T0_T1_ERKS6_S8_ @402
    _ZTI10ParamGrain @403 DATA
    _ZTI10ParamPlant @404 DATA
    _ZTI11Environment @405 DATA
    _ZTI11ParamEntity @406 DATA
    _ZTI18SolvDifferentialEq @407 DATA
    _ZTI4Root @408 DATA
    _ZTI5Grain @409 DATA
    _ZTI5Plant @410 DATA
    _ZTI6Entity @411 DATA
    _ZTI8ParamEnv @412 DATA
    _ZTI9ParamRoot @413 DATA
    _ZTS10ParamGrain @414 DATA
    _ZTS10ParamPlant @415 DATA
    _ZTS11Environment @416 DATA
    _ZTS11ParamEntity @417 DATA
    _ZTS18SolvDifferentialEq @418 DATA
    _ZTS4Root @419 DATA
    _ZTS5Grain @420 DATA
    _ZTS5Plant @421 DATA
    _ZTS6Entity @422 DATA
    _ZTS8ParamEnv @423 DATA
    _ZTS9ParamRoot @424 DATA
    _ZTV10ParamGrain @425 DATA
    _ZTV10ParamPlant @426 DATA
    _ZTV11Environment @427 DATA
    _ZTV11ParamEntity @428 DATA
    _ZTV18SolvDifferentialEq @429 DATA
    _ZTV4Root @430 DATA
    _ZTV5Grain @431 DATA
    _ZTV5Plant @432 DATA
    _ZTV6Entity @433 DATA
    _ZTV8ParamEnv @434 DATA
    _ZTV9ParamRoot @435 DATA
    _ZThn120_N10ParamPlantD0Ev @436
    _ZThn120_N10ParamPlantD1Ev @437
    _ZThn120_N5PlantD0Ev @438
    _ZThn120_N5PlantD1Ev @439
    _ZThn248_N10ParamPlantD0Ev @440
    _ZThn248_N10ParamPlantD1Ev @441
    _ZThn248_N5PlantD0Ev @442
    _ZThn248_N5PlantD1Ev @443
    _get_output_format @444
    main @445
